(dp1
S'HeadYaw'
p2
cnumpy.core.multiarray
_reconstruct
p3
(cnumpy.matrixlib.defmatrix
matrix
p4
(I0
tS'b'
tRp5
(I1
(I4
I1
tcnumpy
dtype
p6
(S'O8'
I0
I1
tRp7
(I3
S'|'
NNNI-1
I-1
I63
tbI00
(lp8
ccopy_reg
_reconstructor
p9
(csympy.core.add
Add
p10
c__builtin__
object
p11
NtRp12
(dp13
S'_a_inprogress'
p14
(lp15
sS'_mhash'
p16
I5382440691627116078
sS'_assume_type_keys'
p17
NsS'_args'
p18
(g9
(csympy.core.mul
Mul
p19
g11
NtRp20
(dp21
g14
(lp22
sg16
I-5662339764514342027
sg17
Nsg18
(g9
(csympy.core.numbers
Float
p23
g11
NtRp24
((I1
S'19L'
I2
I5
t(dp25
S'_prec'
p26
I53
sg14
(lp27
sg16
I-2346872259468522873
sg17
Nsg18
(tsS'_assumptions'
p28
(dp29
S'nonpositive'
p30
I01
sS'unbounded'
p31
I00
sS'zero'
p32
I00
sS'odd'
p33
I00
sS'nonzero'
p34
I01
sS'commutative'
p35
I01
sS'positive'
p36
I00
sS'noninteger'
p37
I01
sS'negative'
p38
I01
sS'complex'
p39
I01
sS'finite'
p40
I01
sS'real'
p41
I01
sS'even'
p42
I00
sS'comparable'
p43
I01
sS'irrational'
p44
I00
sS'composite'
p45
I00
sS'bounded'
p46
I01
sS'integer'
p47
I00
sS'imaginary'
p48
I00
sS'prime'
p49
I00
sS'nonnegative'
p50
I00
sS'infinitesimal'
p51
I00
sstbg9
(csympy.functions.elementary.trigonometric
cos
p52
g11
NtRp53
(dp54
g17
Nsg18
(g9
(csympy.core.symbol
Symbol
p55
g11
NtRp56
(dp57
g14
(lp58
sS'name'
p59
S'LKneePitch'
p60
sg17
Nsg18
(tsg28
(dp61
S'comparable'
p62
I00
ssS'is_commutative'
p63
I01
sg16
I5412175465016114577
sbtp64
sg14
(lp65
sg28
(dp66
sg16
I-2388689740720130882
sbg9
(csympy.functions.elementary.trigonometric
sin
p67
g11
NtRp68
(dp69
g17
Nsg18
(g9
(g55
g11
NtRp70
(dp71
g14
(lp72
sg59
S'LAnklePitch'
p73
sg17
Nsg18
(tsg28
g61
sg63
I01
sg16
I4557095427620404530
sbtp74
sg14
(lp75
sg28
(dp76
sg16
I469005063735255012
sbtp77
sg28
(dp78
sg63
I01
sbg9
(g19
g11
NtRp79
(dp80
g14
(lp81
sg16
I-3940722699601791535
sg17
Nsg18
(g9
(g23
g11
NtRp82
((I1
S'1a7L'
I-1
I9
t(dp83
g26
I53
sg14
(lp84
sg16
I-4798194589019843811
sg17
Nsg18
(tsg28
(dp85
g41
I01
sg42
I00
sg43
I01
sg44
I00
sg30
I01
sg45
I00
sg31
I00
sg38
I01
sg32
I00
sg46
I01
sg47
I00
sg48
I00
sg33
I00
sg34
I01
sg35
I01
sg49
I00
sg37
I01
sg39
I01
sg50
I00
sg51
I00
sg36
I00
sg40
I01
sstbg9
(g10
g11
NtRp86
(dp87
g14
(lp88
sg16
I6717878966925664363
sg17
Nsg18
(g9
(g19
g11
NtRp89
(dp90
g14
(lp91
sg16
I-1196772295671302151
sg17
Nsg18
(g9
(g23
g11
NtRp92
((I0
S'1L'
I0
I1
t(dp93
g26
I53
sg14
(lp94
sg16
I-8838321674194594742
sg17
Nsg18
(tsg28
g29
stbg9
(g10
g11
NtRp95
(dp96
g14
(lp97
sg16
I1256289151636083572
sg17
Nsg18
(g9
(g19
g11
NtRp98
(dp99
g14
(lp100
sg16
I-7658976761229218160
sg17
Nsg18
(g9
(g23
g11
NtRp101
((I1
S'1L'
I0
I1
t(dp102
g26
I53
sg14
(lp103
sg16
I1652741725224645181
sg17
Nsg18
(tsg28
g29
stbg68
g9
(g67
g11
NtRp104
(dp105
g17
Nsg18
(g56
tp106
sg14
(lp107
sg28
g76
sg16
I1094005778642207329
sbtp108
sg28
(dp109
sg63
I01
sbg9
(g19
g11
NtRp110
(dp111
g14
(lp112
sg16
I1486223480005610259
sg17
Nsg18
(g9
(g23
g11
NtRp113
((I0
S'1L'
I0
I1
t(dp114
g26
I53
sg14
(lp115
sg16
I-8838321674194594742
sg17
Nsg18
(tsg28
g29
stbg9
(g52
g11
NtRp116
(dp117
g17
Nsg18
(g70
tp118
sg14
(lp119
sg28
g66
sg16
I-3169429403662439417
sbg53
tp120
sg28
g109
sg63
I01
sbtp121
sg28
(dp122
sg63
I01
sbg9
(g52
g11
NtRp123
(dp124
g17
Nsg18
(g9
(g55
g11
NtRp125
(dp126
g14
(lp127
sg59
S'LHipPitch'
p128
sg17
Nsg18
(tsg28
g61
sg63
I01
sg16
I-1025417800962826546
sbtp129
sg14
(lp130
sg28
g66
sg16
I-3633416237076625541
sbtp131
sg28
g109
sg63
I01
sbg9
(g19
g11
NtRp132
(dp133
g14
(lp134
sg16
I3520655246064079337
sg17
Nsg18
(g9
(g23
g11
NtRp135
((I0
S'1L'
I0
I1
t(dp136
g26
I53
sg14
(lp137
sg16
I-8838321674194594742
sg17
Nsg18
(tsg28
g29
stbg9
(g10
g11
NtRp138
(dp139
g14
(lp140
sg16
I1042278072384864747
sg17
Nsg18
(g9
(g19
g11
NtRp141
(dp142
g14
(lp143
sg16
I-4823366715634481897
sg17
Nsg18
(g9
(g23
g11
NtRp144
((I1
S'1L'
I0
I1
t(dp145
g26
I53
sg14
(lp146
sg16
I1652741725224645181
sg17
Nsg18
(tsg28
g29
stbg53
g68
tp147
sg28
g109
sg63
I01
sbg9
(g19
g11
NtRp148
(dp149
g14
(lp150
sg16
I1272630013917902215
sg17
Nsg18
(g9
(g23
g11
NtRp151
((I1
S'1L'
I0
I1
t(dp152
g26
I53
sg14
(lp153
sg16
I1652741725224645181
sg17
Nsg18
(tsg28
g29
stbg116
g104
tp154
sg28
g109
sg63
I01
sbtp155
sg28
g122
sg63
I01
sbg9
(g67
g11
NtRp156
(dp157
g17
Nsg18
(g125
tp158
sg14
(lp159
sg28
g76
sg16
I-2336448783462355752
sbtp160
sg28
g109
sg63
I01
sbtp161
sg28
g122
sg63
I01
sbg9
(g52
g11
NtRp162
(dp163
g17
Nsg18
(g9
(g19
g11
NtRp164
(dp165
g14
(lp166
sg16
I-1796842948335186318
sg17
Nsg18
(g9
(g23
g11
NtRp167
((I0
S'1L'
I-1
I1
t(dp168
g26
I53
sg14
(lp169
sg16
I5953416778363468544
sg17
Nsg18
(tsg28
(dp170
S'nonpositive'
p171
I00
sg31
I00
sg32
I00
sg33
I00
sg42
I00
sg35
I01
sS'positive'
p172
I01
sg37
I01
sS'negative'
p173
I00
sg39
I01
sg40
I01
sg41
I01
sg34
I01
sg43
I01
sg44
I00
sg45
I00
sg46
I01
sg47
I00
sg48
I00
sg49
I00
sS'nonnegative'
p174
I01
sg51
I00
sstbg9
(g55
g11
NtRp175
(dp176
g14
(lp177
sg59
S'LHipYawPitch'
p178
sg17
Nsg18
(tsg28
g61
sg63
I01
sg16
I-9000854917545762286
sbtp179
sg28
(dp180
S'comparable'
p181
I00
ssg63
I01
sbtp182
sg14
(lp183
sg28
g66
sg16
I1811371457701354951
sbg9
(g67
g11
NtRp184
(dp185
g17
Nsg18
(g164
tp186
sg14
(lp187
sg28
g76
sg16
I9036829480292220964
sbtp188
sg28
g78
sg63
I01
sbg9
(g19
g11
NtRp189
(dp190
g14
(lp191
sg16
I-3908401231935465369
sg17
Nsg18
(g9
(g23
g11
NtRp192
((I1
S'19L'
I1
I5
t(dp193
g26
I53
sg14
(lp194
sg16
I-5014737459536341256
sg17
Nsg18
(tsg28
g29
stbg86
g184
tp195
sg28
g78
sg63
I01
sbg9
(g19
g11
NtRp196
(dp197
g14
(lp198
sg16
I-185207733544180141
sg17
Nsg18
(g9
(g23
g11
NtRp199
((I1
S'cdccccccccccdL'
I-45
I52
t(dp200
g26
I53
sg14
(lp201
sg16
I6674920830780898407
sg17
Nsg18
(tsg28
(dp202
g30
I01
sg31
I00
sg32
I00
sg33
I00
sg34
I01
sg35
I01
sg36
I00
sg37
I01
sg38
I01
sg39
I01
sg40
I01
sg41
I01
sg42
I00
sg43
I01
sg44
I00
sg45
I00
sg46
I01
sg47
I00
sg48
I00
sg49
I00
sg50
I00
sg51
I00
sstbg68
tp203
sg28
(dp204
sg63
I01
sbg9
(g19
g11
NtRp205
(dp206
g14
(lp207
sg16
I588049676907542869
sg17
Nsg18
(g9
(g23
g11
NtRp208
((I1
S'19L'
I2
I5
t(dp209
g26
I53
sg14
(lp210
sg16
I-2346872259468522873
sg17
Nsg18
(tsg28
g29
stbg116
g104
tp211
sg28
g78
sg63
I01
sbg9
(g19
g11
NtRp212
(dp213
g14
(lp214
sg16
I3881670972001836852
sg17
Nsg18
(g9
(g23
g11
NtRp215
((I0
S'19L'
I1
I5
t(dp216
g26
I53
sg14
(lp217
sg16
I2580433242203447463
sg17
Nsg18
(tsg28
g29
stbg9
(g10
g11
NtRp218
(dp219
g14
(lp220
sg16
I3870281242178868792
sg17
Nsg18
(g9
(g19
g11
NtRp221
(dp222
g14
(lp223
sg16
I-6798455840043771150
sg17
Nsg18
(g9
(g23
g11
NtRp224
((I0
S'1L'
I0
I1
t(dp225
g26
I53
sg14
(lp226
sg16
I-8838321674194594742
sg17
Nsg18
(tsg28
g29
stbg138
g123
tp227
sg28
g109
sg63
I01
sbg9
(g19
g11
NtRp228
(dp229
g14
(lp230
sg16
I8205769034482908753
sg17
Nsg18
(g9
(g23
g11
NtRp231
((I1
S'1L'
I0
I1
t(dp232
g26
I53
sg14
(lp233
sg16
I1652741725224645181
sg17
Nsg18
(tsg28
g29
stbg95
g156
tp234
sg28
g109
sg63
I01
sbtp235
sg28
g122
sg63
I01
sbg162
g9
(g67
g11
NtRp236
(dp237
g17
Nsg18
(g9
(g55
g11
NtRp238
(dp239
g14
(lp240
sg59
S'LHipRoll'
p241
sg17
Nsg18
(tsg28
g61
sg63
I01
sg16
I7920519214839408190
sbtp242
sg14
(lp243
sg28
g76
sg16
I-3599670680473769592
sbtp244
sg28
g78
sg63
I01
sbg9
(g19
g11
NtRp245
(dp246
g14
(lp247
sg16
I4487905620948856246
sg17
Nsg18
(g9
(g23
g11
NtRp248
((I1
S'1a7L'
I-1
I9
t(dp249
g26
I53
sg14
(lp250
sg16
I-4798194589019843811
sg17
Nsg18
(tsg28
(dp251
g41
I01
sg42
I00
sg43
I01
sg44
I00
sg30
I01
sg45
I00
sg31
I00
sg38
I01
sg32
I00
sg46
I01
sg47
I00
sg48
I00
sg33
I00
sg34
I01
sg35
I01
sg49
I00
sg37
I01
sg39
I01
sg50
I00
sg51
I00
sg36
I00
sg40
I01
sstbg9
(csympy.core.power
Pow
p252
g11
NtRp253
(dp254
g14
(lp255
sg17
Nsg18
(g184
g9
(csympy.core.numbers
Integer
p256
g11
NtRp257
(dp258
S'q'
I1
sS'p'
I2
sg14
(lp259
sg16
I6250422013836517545
sg17
Nsg18
(tsg28
(dp260
S'real'
p261
I01
sS'nonzero'
p262
I01
sg43
I01
sg35
I01
sg51
I00
sg171
I00
sg31
I00
sS'noninteger'
p263
I00
sg173
I00
sg174
I01
sS'zero'
p264
I00
sg39
I01
sg46
I01
sS'rational'
p265
I01
sg172
I01
sS'integer'
p266
I01
sg48
I00
sg40
I01
sS'irrational'
p267
I00
ssbtp268
sg28
(dp269
sg63
I01
sg16
I-3657261253759895781
sbg218
g236
tp270
sg28
g78
sg63
I01
sbg9
(g19
g11
NtRp271
(dp272
g14
(lp273
sg16
I6551472963092880756
sg17
Nsg18
(g9
(g23
g11
NtRp274
((I0
S'1a7L'
I-1
I9
t(dp275
g26
I53
sg14
(lp276
sg16
I-2739517552269624854
sg17
Nsg18
(tsg28
(dp277
g41
I01
sg42
I00
sg43
I01
sg44
I00
sg171
I00
sg45
I00
sg31
I00
sg38
I00
sg32
I00
sg46
I01
sg47
I00
sg48
I00
sg33
I00
sg34
I01
sg35
I01
sg49
I00
sg37
I01
sg39
I01
sg174
I01
sg51
I00
sS'positive'
p278
I01
sg40
I01
sstbg218
g9
(g52
g11
NtRp279
(dp280
g17
Nsg18
(g238
tp281
sg14
(lp282
sg28
g66
sg16
I-4835345116878781013
sbg162
tp283
sg28
g78
sg63
I01
sbtp284
sg28
(dp285
sg63
I01
sbag9
(g10
g11
NtRp286
(dp287
g14
(lp288
sg16
I2710084779588503239
sg17
Nsg18
(g9
(g19
g11
NtRp289
(dp290
g14
(lp291
sg16
I-1761827099595655349
sg17
Nsg18
(g9
(g23
g11
NtRp292
((I1
S'19L'
I1
I5
t(dp293
g26
I53
sg14
(lp294
sg16
I-5014737459536341256
sg17
Nsg18
(tsg28
g29
stbg9
(g10
g11
NtRp295
(dp296
g14
(lp297
sg16
I1682932182732469855
sg17
Nsg18
(g9
(g19
g11
NtRp298
(dp299
g14
(lp300
sg16
I3780604114569453120
sg17
Nsg18
(g9
(g23
g11
NtRp301
((I0
S'1L'
I0
I1
t(dp302
g26
I53
sg14
(lp303
sg16
I-8838321674194594742
sg17
Nsg18
(tsg28
g29
stbg9
(g10
g11
NtRp304
(dp305
g14
(lp306
sg16
I5256152452411231825
sg17
Nsg18
(g9
(g19
g11
NtRp307
(dp308
g14
(lp309
sg16
I-3266474171932043814
sg17
Nsg18
(g9
(g23
g11
NtRp310
((I0
S'1L'
I0
I1
t(dp311
g26
I53
sg14
(lp312
sg16
I-8838321674194594742
sg17
Nsg18
(tsg28
g29
stbg116
g9
(g67
g11
NtRp313
(dp314
g17
Nsg18
(g9
(g55
g11
NtRp315
(dp316
g14
(lp317
sg59
S'LAnkleRoll'
p318
sg17
Nsg18
(tsg28
g61
sg63
I01
sg16
I555487996367263762
sbtp319
sg14
(lp320
sg28
g76
sg16
I7857679847103486788
sbg104
tp321
sg28
g109
sg63
I01
sbg9
(g19
g11
NtRp322
(dp323
g14
(lp324
sg16
I8139773066444053658
sg17
Nsg18
(g9
(g23
g11
NtRp325
((I0
S'1L'
I0
I1
t(dp326
g26
I53
sg14
(lp327
sg16
I-8838321674194594742
sg17
Nsg18
(tsg28
g29
stbg53
g68
g313
tp328
sg28
g109
sg63
I01
sbtp329
sg28
g122
sg63
I01
sbg123
tp330
sg28
g109
sg63
I01
sbg9
(g19
g11
NtRp331
(dp332
g14
(lp333
sg16
I8548586651106375750
sg17
Nsg18
(g9
(g23
g11
NtRp334
((I0
S'1L'
I0
I1
t(dp335
g26
I53
sg14
(lp336
sg16
I-8838321674194594742
sg17
Nsg18
(tsg28
g29
stbg9
(g10
g11
NtRp337
(dp338
g14
(lp339
sg16
I-2374006051738711536
sg17
Nsg18
(g9
(g19
g11
NtRp340
(dp341
g14
(lp342
sg16
I-8192921062209652115
sg17
Nsg18
(g9
(g23
g11
NtRp343
((I0
S'1L'
I0
I1
t(dp344
g26
I53
sg14
(lp345
sg16
I-8838321674194594742
sg17
Nsg18
(tsg28
g29
stbg116
g53
g313
tp346
sg28
g109
sg63
I01
sbg9
(g19
g11
NtRp347
(dp348
g14
(lp349
sg16
I-2972753615761858832
sg17
Nsg18
(g9
(g23
g11
NtRp350
((I1
S'1L'
I0
I1
t(dp351
g26
I53
sg14
(lp352
sg16
I1652741725224645181
sg17
Nsg18
(tsg28
g29
stbg68
g313
g104
tp353
sg28
g109
sg63
I01
sbtp354
sg28
g122
sg63
I01
sbg156
tp355
sg28
g109
sg63
I01
sbtp356
sg28
g122
sg63
I01
sbg184
tp357
sg28
g78
sg63
I01
sbg9
(g19
g11
NtRp358
(dp359
g14
(lp360
sg16
I-828627904193422321
sg17
Nsg18
(g9
(g23
g11
NtRp361
((I0
S'19L'
I2
I5
t(dp362
g26
I53
sg14
(lp363
sg16
I-3718610978853045224
sg17
Nsg18
(tsg28
g29
stbg116
g53
g313
tp364
sg28
g78
sg63
I01
sbg9
(g19
g11
NtRp365
(dp366
g14
(lp367
sg16
I869521597715138635
sg17
Nsg18
(g9
(g23
g11
NtRp368
((I0
S'1a7L'
I-1
I9
t(dp369
g26
I53
sg14
(lp370
sg16
I-2739517552269624854
sg17
Nsg18
(tsg28
(dp371
g41
I01
sg42
I00
sg43
I01
sg44
I00
sg171
I00
sg45
I00
sg31
I00
sg38
I00
sg32
I00
sg46
I01
sg47
I00
sg48
I00
sg33
I00
sg34
I01
sg35
I01
sg49
I00
sg37
I01
sg39
I01
sg174
I01
sg51
I00
sg278
I01
sg40
I01
sstbg253
g9
(g10
g11
NtRp372
(dp373
g14
(lp374
sg16
I442521960375286234
sg17
Nsg18
(g9
(g19
g11
NtRp375
(dp376
g14
(lp377
sg16
I-8852012087828302314
sg17
Nsg18
(g9
(g23
g11
NtRp378
((I0
S'1L'
I0
I1
t(dp379
g26
I53
sg14
(lp380
sg16
I-8838321674194594742
sg17
Nsg18
(tsg28
g29
stbg9
(g52
g11
NtRp381
(dp382
g17
Nsg18
(g315
tp383
sg14
(lp384
sg28
g66
sg16
I5093790778978314087
sbg279
tp385
sg28
g109
sg63
I01
sbg9
(g19
g11
NtRp386
(dp387
g14
(lp388
sg16
I-2351364883059442481
sg17
Nsg18
(g9
(g23
g11
NtRp389
((I1
S'1L'
I0
I1
t(dp390
g26
I53
sg14
(lp391
sg16
I1652741725224645181
sg17
Nsg18
(tsg28
g29
stbg9
(g10
g11
NtRp392
(dp393
g14
(lp394
sg16
I3896270787105921418
sg17
Nsg18
(g9
(g19
g11
NtRp395
(dp396
g14
(lp397
sg16
I2167158140672430200
sg17
Nsg18
(g9
(g23
g11
NtRp398
((I1
S'1L'
I0
I1
t(dp399
g26
I53
sg14
(lp400
sg16
I1652741725224645181
sg17
Nsg18
(tsg28
g29
stbg304
g156
tp401
sg28
g109
sg63
I01
sbg9
(g19
g11
NtRp402
(dp403
g14
(lp404
sg16
I9212975863050449213
sg17
Nsg18
(g9
(g23
g11
NtRp405
((I0
S'1L'
I0
I1
t(dp406
g26
I53
sg14
(lp407
sg16
I-8838321674194594742
sg17
Nsg18
(tsg28
g29
stbg337
g123
tp408
sg28
g109
sg63
I01
sbtp409
sg28
g122
sg63
I01
sbg236
tp410
sg28
g109
sg63
I01
sbtp411
sg28
g122
sg63
I01
sbtp412
sg28
g78
sg63
I01
sbg9
(g19
g11
NtRp413
(dp414
g14
(lp415
sg16
I1551262604859555904
sg17
Nsg18
(g9
(g23
g11
NtRp416
((I0
S'1a7L'
I-1
I9
t(dp417
g26
I53
sg14
(lp418
sg16
I-2739517552269624854
sg17
Nsg18
(tsg28
(dp419
g41
I01
sg42
I00
sg43
I01
sg44
I00
sg171
I00
sg45
I00
sg31
I00
sg38
I00
sg32
I00
sg46
I01
sg47
I00
sg48
I00
sg33
I00
sg34
I01
sg35
I01
sg49
I00
sg37
I01
sg39
I01
sg174
I01
sg51
I00
sg278
I01
sg40
I01
sstbg9
(g10
g11
NtRp420
(dp421
g14
(lp422
sg16
I6833547604045752061
sg17
Nsg18
(g9
(g19
g11
NtRp423
(dp424
g14
(lp425
sg16
I-2479784656774793651
sg17
Nsg18
(g9
(g23
g11
NtRp426
((I0
S'1L'
I0
I1
t(dp427
g26
I53
sg14
(lp428
sg16
I-8838321674194594742
sg17
Nsg18
(tsg28
g29
stbg381
g236
tp429
sg28
g109
sg63
I01
sbg9
(g19
g11
NtRp430
(dp431
g14
(lp432
sg16
I-778721528649578881
sg17
Nsg18
(g9
(g23
g11
NtRp433
((I0
S'1L'
I0
I1
t(dp434
g26
I53
sg14
(lp435
sg16
I-8838321674194594742
sg17
Nsg18
(tsg28
g29
stbg392
g279
tp436
sg28
g109
sg63
I01
sbtp437
sg28
g122
sg63
I01
sbg162
tp438
sg28
g78
sg63
I01
sbg9
(g19
g11
NtRp439
(dp440
g14
(lp441
sg16
I3179208869680003355
sg17
Nsg18
(g9
(g23
g11
NtRp442
((I0
S'cdccccccccccdL'
I-45
I52
t(dp443
g26
I53
sg14
(lp444
sg16
I-2031544583562847888
sg17
Nsg18
(tsg28
g29
stbg116
g313
tp445
sg28
g78
sg63
I01
sbg9
(g19
g11
NtRp446
(dp447
g14
(lp448
sg16
I4095490653871073430
sg17
Nsg18
(g9
(g23
g11
NtRp449
((I1
S'19L'
I2
I5
t(dp450
g26
I53
sg14
(lp451
sg16
I-2346872259468522873
sg17
Nsg18
(tsg28
g29
stbg68
g313
g104
tp452
sg28
g78
sg63
I01
sbg9
(g19
g11
NtRp453
(dp454
g14
(lp455
sg16
I8025557707385571597
sg17
Nsg18
(g9
(g23
g11
NtRp456
((I1
S'1a7L'
I-1
I9
t(dp457
g26
I53
sg14
(lp458
sg16
I-4798194589019843811
sg17
Nsg18
(tsg28
(dp459
g41
I01
sg42
I00
sg43
I01
sg44
I00
sg30
I01
sg45
I00
sg31
I00
sg38
I01
sg32
I00
sg46
I01
sg47
I00
sg48
I00
sg33
I00
sg34
I01
sg35
I01
sg49
I00
sg37
I01
sg39
I01
sg50
I00
sg51
I00
sg36
I00
sg40
I01
sstbg295
g162
g184
tp460
sg28
g78
sg63
I01
sbg9
(g19
g11
NtRp461
(dp462
g14
(lp463
sg16
I8534441163726783889
sg17
Nsg18
(g9
(g23
g11
NtRp464
((I1
S'19L'
I1
I5
t(dp465
g26
I53
sg14
(lp466
sg16
I-5014737459536341256
sg17
Nsg18
(tsg28
g29
stbg372
g162
tp467
sg28
g78
sg63
I01
sbtp468
sg28
g285
sg63
I01
sbag9
(g10
g11
NtRp469
(dp470
g14
(lp471
sg16
I1596067802258820712
sg17
Nsg18
(g9
(g19
g11
NtRp472
(dp473
g14
(lp474
sg16
I-6556487281345382977
sg17
Nsg18
(g9
(g23
g11
NtRp475
((I1
S'19L'
I1
I5
t(dp476
g26
I53
sg14
(lp477
sg16
I-5014737459536341256
sg17
Nsg18
(tsg28
g29
stbg9
(g10
g11
NtRp478
(dp479
g14
(lp480
sg16
I-8866867546158554461
sg17
Nsg18
(g9
(g19
g11
NtRp481
(dp482
g14
(lp483
sg16
I-2987351560487661096
sg17
Nsg18
(g9
(g23
g11
NtRp484
((I0
S'1L'
I0
I1
t(dp485
g26
I53
sg14
(lp486
sg16
I-8838321674194594742
sg17
Nsg18
(tsg28
g29
stbg9
(g10
g11
NtRp487
(dp488
g14
(lp489
sg16
I8206217854138926758
sg17
Nsg18
(g9
(g19
g11
NtRp490
(dp491
g14
(lp492
sg16
I1271161198575757730
sg17
Nsg18
(g9
(g23
g11
NtRp493
((I0
S'1L'
I0
I1
t(dp494
g26
I53
sg14
(lp495
sg16
I-8838321674194594742
sg17
Nsg18
(tsg28
g29
stbg116
g381
g53
tp496
sg28
g109
sg63
I01
sbg9
(g19
g11
NtRp497
(dp498
g14
(lp499
sg16
I9152829386966901927
sg17
Nsg18
(g9
(g23
g11
NtRp500
((I1
S'1L'
I0
I1
t(dp501
g26
I53
sg14
(lp502
sg16
I1652741725224645181
sg17
Nsg18
(tsg28
g29
stbg381
g68
g104
tp503
sg28
g109
sg63
I01
sbtp504
sg28
g122
sg63
I01
sbg156
tp505
sg28
g109
sg63
I01
sbg9
(g19
g11
NtRp506
(dp507
g14
(lp508
sg16
I6188678330885593266
sg17
Nsg18
(g9
(g23
g11
NtRp509
((I0
S'1L'
I0
I1
t(dp510
g26
I53
sg14
(lp511
sg16
I-8838321674194594742
sg17
Nsg18
(tsg28
g29
stbg9
(g10
g11
NtRp512
(dp513
g14
(lp514
sg16
I-3435933671010924245
sg17
Nsg18
(g9
(g19
g11
NtRp515
(dp516
g14
(lp517
sg16
I-4044542757973892499
sg17
Nsg18
(g9
(g23
g11
NtRp518
((I0
S'1L'
I0
I1
t(dp519
g26
I53
sg14
(lp520
sg16
I-8838321674194594742
sg17
Nsg18
(tsg28
g29
stbg381
g53
g68
tp521
sg28
g109
sg63
I01
sbg9
(g19
g11
NtRp522
(dp523
g14
(lp524
sg16
I7292935414821314237
sg17
Nsg18
(g9
(g23
g11
NtRp525
((I0
S'1L'
I0
I1
t(dp526
g26
I53
sg14
(lp527
sg16
I-8838321674194594742
sg17
Nsg18
(tsg28
g29
stbg116
g381
g104
tp528
sg28
g109
sg63
I01
sbtp529
sg28
g122
sg63
I01
sbg123
tp530
sg28
g109
sg63
I01
sbtp531
sg28
g122
sg63
I01
sbg184
tp532
sg28
g78
sg63
I01
sbg9
(g19
g11
NtRp533
(dp534
g14
(lp535
sg16
I-5481660358300881344
sg17
Nsg18
(g9
(g23
g11
NtRp536
((I0
S'cdccccccccccdL'
I-45
I52
t(dp537
g26
I53
sg14
(lp538
sg16
I-2031544583562847888
sg17
Nsg18
(tsg28
g29
stbg116
g381
tp539
sg28
g78
sg63
I01
sbg9
(g19
g11
NtRp540
(dp541
g14
(lp542
sg16
I-4699213883443200848
sg17
Nsg18
(g9
(g23
g11
NtRp543
((I0
S'19L'
I2
I5
t(dp544
g26
I53
sg14
(lp545
sg16
I-3718610978853045224
sg17
Nsg18
(tsg28
g29
stbg116
g381
g53
tp546
sg28
g78
sg63
I01
sbg9
(g19
g11
NtRp547
(dp548
g14
(lp549
sg16
I-4184198858367150417
sg17
Nsg18
(g9
(g23
g11
NtRp550
((I1
S'19L'
I1
I5
t(dp551
g26
I53
sg14
(lp552
sg16
I-5014737459536341256
sg17
Nsg18
(tsg28
g29
stbg9
(g10
g11
NtRp553
(dp554
g14
(lp555
sg16
I-2567726877828039108
sg17
Nsg18
(g9
(g19
g11
NtRp556
(dp557
g14
(lp558
sg16
I-7541008939373616601
sg17
Nsg18
(g9
(g23
g11
NtRp559
((I1
S'1L'
I0
I1
t(dp560
g26
I53
sg14
(lp561
sg16
I1652741725224645181
sg17
Nsg18
(tsg28
g29
stbg9
(g10
g11
NtRp562
(dp563
g14
(lp564
sg16
I869681701104540018
sg17
Nsg18
(g9
(g19
g11
NtRp565
(dp566
g14
(lp567
sg16
I-1276556729643845286
sg17
Nsg18
(g9
(g23
g11
NtRp568
((I1
S'1L'
I0
I1
t(dp569
g26
I53
sg14
(lp570
sg16
I1652741725224645181
sg17
Nsg18
(tsg28
g29
stbg512
g156
tp571
sg28
g109
sg63
I01
sbg9
(g19
g11
NtRp572
(dp573
g14
(lp574
sg16
I8255764549723664499
sg17
Nsg18
(g9
(g23
g11
NtRp575
((I0
S'1L'
I0
I1
t(dp576
g26
I53
sg14
(lp577
sg16
I-8838321674194594742
sg17
Nsg18
(tsg28
g29
stbg487
g123
tp578
sg28
g109
sg63
I01
sbtp579
sg28
g122
sg63
I01
sbg236
tp580
sg28
g109
sg63
I01
sbg9
(g19
g11
NtRp581
(dp582
g14
(lp583
sg16
I4717626133492891022
sg17
Nsg18
(g9
(g23
g11
NtRp584
((I1
S'1L'
I0
I1
t(dp585
g26
I53
sg14
(lp586
sg16
I1652741725224645181
sg17
Nsg18
(tsg28
g29
stbg279
g313
tp587
sg28
g109
sg63
I01
sbtp588
sg28
g122
sg63
I01
sbg162
tp589
sg28
g78
sg63
I01
sbg9
(g19
g11
NtRp590
(dp591
g14
(lp592
sg16
I-1862090418695859787
sg17
Nsg18
(g9
(g23
g11
NtRp593
((I0
S'1a7L'
I-1
I9
t(dp594
g26
I53
sg14
(lp595
sg16
I-2739517552269624854
sg17
Nsg18
(tsg28
(dp596
g41
I01
sg42
I00
sg43
I01
sg44
I00
sg171
I00
sg45
I00
sg31
I00
sg38
I00
sg32
I00
sg46
I01
sg47
I00
sg48
I00
sg33
I00
sg34
I01
sg35
I01
sg49
I00
sg37
I01
sg39
I01
sg174
I01
sg51
I00
sg278
I01
sg40
I01
sstbg253
g553
tp597
sg28
g78
sg63
I01
sbg9
(g19
g11
NtRp598
(dp599
g14
(lp600
sg16
I-159933867742916631
sg17
Nsg18
(g9
(g23
g11
NtRp601
((I1
S'1a7L'
I-1
I9
t(dp602
g26
I53
sg14
(lp603
sg16
I-4798194589019843811
sg17
Nsg18
(tsg28
(dp604
g41
I01
sg42
I00
sg43
I01
sg44
I00
sg30
I01
sg45
I00
sg31
I00
sg38
I01
sg32
I00
sg46
I01
sg47
I00
sg48
I00
sg33
I00
sg34
I01
sg35
I01
sg49
I00
sg37
I01
sg39
I01
sg50
I00
sg51
I00
sg36
I00
sg40
I01
sstbg478
g162
g184
tp605
sg28
g78
sg63
I01
sbg9
(g19
g11
NtRp606
(dp607
g14
(lp608
sg16
I2433092481489119865
sg17
Nsg18
(g9
(g23
g11
NtRp609
((I1
S'19L'
I2
I5
t(dp610
g26
I53
sg14
(lp611
sg16
I-2346872259468522873
sg17
Nsg18
(tsg28
g29
stbg381
g68
g104
tp612
sg28
g78
sg63
I01
sbg9
(g19
g11
NtRp613
(dp614
g14
(lp615
sg16
I7037919980444245412
sg17
Nsg18
(g9
(g23
g11
NtRp616
((I0
S'1a7L'
I-1
I9
t(dp617
g26
I53
sg14
(lp618
sg16
I-2739517552269624854
sg17
Nsg18
(tsg28
(dp619
g41
I01
sg42
I00
sg43
I01
sg44
I00
sg171
I00
sg45
I00
sg31
I00
sg38
I00
sg32
I00
sg46
I01
sg47
I00
sg48
I00
sg33
I00
sg34
I01
sg35
I01
sg49
I00
sg37
I01
sg39
I01
sg174
I01
sg51
I00
sg278
I01
sg40
I01
sstbg9
(g10
g11
NtRp620
(dp621
g14
(lp622
sg16
I-6146831059513941967
sg17
Nsg18
(g9
(g19
g11
NtRp623
(dp624
g14
(lp625
sg16
I-1045122955126418447
sg17
Nsg18
(g9
(g23
g11
NtRp626
((I1
S'1L'
I0
I1
t(dp627
g26
I53
sg14
(lp628
sg16
I1652741725224645181
sg17
Nsg18
(tsg28
g29
stbg313
g236
tp629
sg28
g109
sg63
I01
sbg9
(g19
g11
NtRp630
(dp631
g14
(lp632
sg16
I6032198764046301303
sg17
Nsg18
(g9
(g23
g11
NtRp633
((I0
S'1L'
I0
I1
t(dp634
g26
I53
sg14
(lp635
sg16
I-8838321674194594742
sg17
Nsg18
(tsg28
g29
stbg562
g279
tp636
sg28
g109
sg63
I01
sbtp637
sg28
g122
sg63
I01
sbg162
tp638
sg28
g78
sg63
I01
sbtp639
sg28
g285
sg63
I01
sbag9
(g23
g11
NtRp640
((I0
S'1L'
I0
I1
t(dp641
g26
I53
sg14
(lp642
sg16
Nsg17
Nsg18
(tsg28
(dp643
g41
I01
sg34
I01
sg43
I01
sg37
I01
sg44
I00
sg51
I00
sg45
I00
sg31
I00
sg42
I00
sg49
I00
sg32
I00
sg39
I01
sg46
I01
sg47
I00
sg48
I00
sg40
I01
sg33
I00
sg35
I01
sstbatbsS'RHipPitch'
p644
g3
(g4
(I0
tS'b'
tRp645
(I1
(I4
I1
tg7
I00
(lp646
g9
(g10
g11
NtRp647
(dp648
g14
(lp649
sg16
I-3439851479891245011
sg17
Nsg18
(g9
(g19
g11
NtRp650
(dp651
g14
(lp652
sg16
I-8009663761771334323
sg17
Nsg18
(g9
(g23
g11
NtRp653
((I0
S'19L'
I2
I5
t(dp654
g26
I53
sg14
(lp655
sg16
I-3718610978853045224
sg17
Nsg18
(tsg28
g643
stbg9
(g10
g11
NtRp656
(dp657
g14
(lp658
sg16
I3870281242178868792
sg17
Nsg18
(g9
(g19
g11
NtRp659
(dp660
g14
(lp661
sg16
I-6798455840043771150
sg17
Nsg18
(g9
(g23
g11
NtRp662
((I0
S'1L'
I0
I1
t(dp663
g26
I53
sg14
(lp664
sg16
I-8838321674194594742
sg17
Nsg18
(tsg28
g643
stbg9
(g10
g11
NtRp665
(dp666
g14
(lp667
sg16
I1042278072384864747
sg17
Nsg18
(g9
(g19
g11
NtRp668
(dp669
g14
(lp670
sg16
I-4823366715634481897
sg17
Nsg18
(g9
(g23
g11
NtRp671
((I1
S'1L'
I0
I1
t(dp672
g26
I53
sg14
(lp673
sg16
I1652741725224645181
sg17
Nsg18
(tsg28
g643
stbg53
g68
tp674
sg28
g78
sg63
I01
sbg9
(g19
g11
NtRp675
(dp676
g14
(lp677
sg16
I1272630013917902215
sg17
Nsg18
(g9
(g23
g11
NtRp678
((I1
S'1L'
I0
I1
t(dp679
g26
I53
sg14
(lp680
sg16
I1652741725224645181
sg17
Nsg18
(tsg28
g643
stbg116
g104
tp681
sg28
g78
sg63
I01
sbtp682
sg28
g285
sg63
I01
sbg123
tp683
sg28
g78
sg63
I01
sbg9
(g19
g11
NtRp684
(dp685
g14
(lp686
sg16
I8205769034482908753
sg17
Nsg18
(g9
(g23
g11
NtRp687
((I1
S'1L'
I0
I1
t(dp688
g26
I53
sg14
(lp689
sg16
I1652741725224645181
sg17
Nsg18
(tsg28
g643
stbg9
(g10
g11
NtRp690
(dp691
g14
(lp692
sg16
I1256289151636083572
sg17
Nsg18
(g9
(g19
g11
NtRp693
(dp694
g14
(lp695
sg16
I-7658976761229218160
sg17
Nsg18
(g9
(g23
g11
NtRp696
((I1
S'1L'
I0
I1
t(dp697
g26
I53
sg14
(lp698
sg16
I1652741725224645181
sg17
Nsg18
(tsg28
g643
stbg68
g104
tp699
sg28
g78
sg63
I01
sbg9
(g19
g11
NtRp700
(dp701
g14
(lp702
sg16
I1486223480005610259
sg17
Nsg18
(g9
(g23
g11
NtRp703
((I0
S'1L'
I0
I1
t(dp704
g26
I53
sg14
(lp705
sg16
I-8838321674194594742
sg17
Nsg18
(tsg28
g643
stbg116
g53
tp706
sg28
g78
sg63
I01
sbtp707
sg28
g285
sg63
I01
sbg156
tp708
sg28
g78
sg63
I01
sbtp709
sg28
g285
sg63
I01
sbg162
g236
tp710
sg28
g78
sg63
I01
sbg9
(g19
g11
NtRp711
(dp712
g14
(lp713
sg16
I-5662339764514342027
sg17
Nsg18
(g9
(g23
g11
NtRp714
((I1
S'19L'
I2
I5
t(dp715
g26
I53
sg14
(lp716
sg16
I-2346872259468522873
sg17
Nsg18
(tsg28
(dp717
g41
I01
sg34
I01
sg43
I01
sg44
I00
sg45
I00
sg31
I00
sg33
I00
sg37
I01
sg39
I01
sg49
I00
sg32
I00
sg51
I00
sg46
I01
sg47
I00
sg48
I00
sg40
I01
sg42
I00
sg35
I01
sstbg53
g68
tp718
sg28
g78
sg63
I01
sbg9
(g19
g11
NtRp719
(dp720
g14
(lp721
sg16
I-3298461398192634516
sg17
Nsg18
(g9
(g23
g11
NtRp722
((I1
S'19L'
I2
I5
t(dp723
g26
I53
sg14
(lp724
sg16
I-2346872259468522873
sg17
Nsg18
(tsg28
g643
stbg9
(g10
g11
NtRp725
(dp726
g14
(lp727
sg16
I6717878966925664363
sg17
Nsg18
(g9
(g19
g11
NtRp728
(dp729
g14
(lp730
sg16
I-1196772295671302151
sg17
Nsg18
(g9
(g23
g11
NtRp731
((I0
S'1L'
I0
I1
t(dp732
g26
I53
sg14
(lp733
sg16
I-8838321674194594742
sg17
Nsg18
(tsg28
g643
stbg690
g123
tp734
sg28
g78
sg63
I01
sbg9
(g19
g11
NtRp735
(dp736
g14
(lp737
sg16
I3520655246064079337
sg17
Nsg18
(g9
(g23
g11
NtRp738
((I0
S'1L'
I0
I1
t(dp739
g26
I53
sg14
(lp740
sg16
I-8838321674194594742
sg17
Nsg18
(tsg28
g643
stbg665
g156
tp741
sg28
g78
sg63
I01
sbtp742
sg28
g285
sg63
I01
sbg184
tp743
sg28
g78
sg63
I01
sbg196
g9
(g19
g11
NtRp744
(dp745
g14
(lp746
sg16
I588049676907542869
sg17
Nsg18
(g9
(g23
g11
NtRp747
((I1
S'19L'
I2
I5
t(dp748
g26
I53
sg14
(lp749
sg16
I-2346872259468522873
sg17
Nsg18
(tsg28
g717
stbg116
g104
tp750
sg28
g78
sg63
I01
sbtp751
sg28
g285
sg63
I01
sbag9
(g10
g11
NtRp752
(dp753
g14
(lp754
sg16
I-7569600370471063691
sg17
Nsg18
(g9
(g19
g11
NtRp755
(dp756
g14
(lp757
sg16
I-828627904193422321
sg17
Nsg18
(g9
(g23
g11
NtRp758
((I0
S'19L'
I2
I5
t(dp759
g26
I53
sg14
(lp760
sg16
I-3718610978853045224
sg17
Nsg18
(tsg28
g717
stbg116
g53
g313
tp761
sg28
g78
sg63
I01
sbg9
(g19
g11
NtRp762
(dp763
g14
(lp764
sg16
I3179208869680003355
sg17
Nsg18
(g9
(g23
g11
NtRp765
((I0
S'cdccccccccccdL'
I-45
I52
t(dp766
g26
I53
sg14
(lp767
sg16
I-2031544583562847888
sg17
Nsg18
(tsg28
g717
stbg116
g313
tp768
sg28
g78
sg63
I01
sbg9
(g19
g11
NtRp769
(dp770
g14
(lp771
sg16
I4095490653871073430
sg17
Nsg18
(g9
(g23
g11
NtRp772
((I1
S'19L'
I2
I5
t(dp773
g26
I53
sg14
(lp774
sg16
I-2346872259468522873
sg17
Nsg18
(tsg28
g717
stbg68
g313
g104
tp775
sg28
g78
sg63
I01
sbg9
(g19
g11
NtRp776
(dp777
g14
(lp778
sg16
I6107688169049442264
sg17
Nsg18
(g9
(g23
g11
NtRp779
((I1
S'19L'
I2
I5
t(dp780
g26
I53
sg14
(lp781
sg16
I-2346872259468522873
sg17
Nsg18
(tsg28
g643
stbg9
(g10
g11
NtRp782
(dp783
g14
(lp784
sg16
I1682932182732469855
sg17
Nsg18
(g9
(g19
g11
NtRp785
(dp786
g14
(lp787
sg16
I3780604114569453120
sg17
Nsg18
(g9
(g23
g11
NtRp788
((I0
S'1L'
I0
I1
t(dp789
g26
I53
sg14
(lp790
sg16
I-8838321674194594742
sg17
Nsg18
(tsg28
g643
stbg9
(g10
g11
NtRp791
(dp792
g14
(lp793
sg16
I5256152452411231825
sg17
Nsg18
(g9
(g19
g11
NtRp794
(dp795
g14
(lp796
sg16
I-3266474171932043814
sg17
Nsg18
(g9
(g23
g11
NtRp797
((I0
S'1L'
I0
I1
t(dp798
g26
I53
sg14
(lp799
sg16
I-8838321674194594742
sg17
Nsg18
(tsg28
g643
stbg116
g313
g104
tp800
sg28
g78
sg63
I01
sbg9
(g19
g11
NtRp801
(dp802
g14
(lp803
sg16
I8139773066444053658
sg17
Nsg18
(g9
(g23
g11
NtRp804
((I0
S'1L'
I0
I1
t(dp805
g26
I53
sg14
(lp806
sg16
I-8838321674194594742
sg17
Nsg18
(tsg28
g643
stbg53
g68
g313
tp807
sg28
g78
sg63
I01
sbtp808
sg28
g285
sg63
I01
sbg123
tp809
sg28
g78
sg63
I01
sbg9
(g19
g11
NtRp810
(dp811
g14
(lp812
sg16
I8548586651106375750
sg17
Nsg18
(g9
(g23
g11
NtRp813
((I0
S'1L'
I0
I1
t(dp814
g26
I53
sg14
(lp815
sg16
I-8838321674194594742
sg17
Nsg18
(tsg28
g643
stbg9
(g10
g11
NtRp816
(dp817
g14
(lp818
sg16
I-2374006051738711536
sg17
Nsg18
(g9
(g19
g11
NtRp819
(dp820
g14
(lp821
sg16
I-8192921062209652115
sg17
Nsg18
(g9
(g23
g11
NtRp822
((I0
S'1L'
I0
I1
t(dp823
g26
I53
sg14
(lp824
sg16
I-8838321674194594742
sg17
Nsg18
(tsg28
g643
stbg116
g53
g313
tp825
sg28
g78
sg63
I01
sbg9
(g19
g11
NtRp826
(dp827
g14
(lp828
sg16
I-2972753615761858832
sg17
Nsg18
(g9
(g23
g11
NtRp829
((I1
S'1L'
I0
I1
t(dp830
g26
I53
sg14
(lp831
sg16
I1652741725224645181
sg17
Nsg18
(tsg28
g643
stbg68
g313
g104
tp832
sg28
g78
sg63
I01
sbtp833
sg28
g285
sg63
I01
sbg156
tp834
sg28
g78
sg63
I01
sbtp835
sg28
g285
sg63
I01
sbg184
tp836
sg28
g78
sg63
I01
sbg9
(g19
g11
NtRp837
(dp838
g14
(lp839
sg16
I8211457612239154898
sg17
Nsg18
(g9
(g23
g11
NtRp840
((I1
S'19L'
I2
I5
t(dp841
g26
I53
sg14
(lp842
sg16
I-2346872259468522873
sg17
Nsg18
(tsg28
g643
stbg9
(g10
g11
NtRp843
(dp844
g14
(lp845
sg16
I442521960375286234
sg17
Nsg18
(g9
(g19
g11
NtRp846
(dp847
g14
(lp848
sg16
I-8852012087828302314
sg17
Nsg18
(g9
(g23
g11
NtRp849
((I0
S'1L'
I0
I1
t(dp850
g26
I53
sg14
(lp851
sg16
I-8838321674194594742
sg17
Nsg18
(tsg28
g643
stbg381
g279
tp852
sg28
g78
sg63
I01
sbg9
(g19
g11
NtRp853
(dp854
g14
(lp855
sg16
I-2351364883059442481
sg17
Nsg18
(g9
(g23
g11
NtRp856
((I1
S'1L'
I0
I1
t(dp857
g26
I53
sg14
(lp858
sg16
I1652741725224645181
sg17
Nsg18
(tsg28
g643
stbg9
(g10
g11
NtRp859
(dp860
g14
(lp861
sg16
I3896270787105921418
sg17
Nsg18
(g9
(g19
g11
NtRp862
(dp863
g14
(lp864
sg16
I2167158140672430200
sg17
Nsg18
(g9
(g23
g11
NtRp865
((I1
S'1L'
I0
I1
t(dp866
g26
I53
sg14
(lp867
sg16
I1652741725224645181
sg17
Nsg18
(tsg28
g643
stbg791
g156
tp868
sg28
g78
sg63
I01
sbg9
(g19
g11
NtRp869
(dp870
g14
(lp871
sg16
I9212975863050449213
sg17
Nsg18
(g9
(g23
g11
NtRp872
((I0
S'1L'
I0
I1
t(dp873
g26
I53
sg14
(lp874
sg16
I-8838321674194594742
sg17
Nsg18
(tsg28
g643
stbg816
g123
tp875
sg28
g78
sg63
I01
sbtp876
sg28
g285
sg63
I01
sbg236
tp877
sg28
g78
sg63
I01
sbtp878
sg28
g285
sg63
I01
sbg162
tp879
sg28
g78
sg63
I01
sbtp880
sg28
g285
sg63
I01
sbag9
(g10
g11
NtRp881
(dp882
g14
(lp883
sg16
I7996601633962797360
sg17
Nsg18
(g9
(g19
g11
NtRp884
(dp885
g14
(lp886
sg16
I-5481660358300881344
sg17
Nsg18
(g9
(g23
g11
NtRp887
((I0
S'cdccccccccccdL'
I-45
I52
t(dp888
g26
I53
sg14
(lp889
sg16
I-2031544583562847888
sg17
Nsg18
(tsg28
g717
stbg116
g381
tp890
sg28
g78
sg63
I01
sbg9
(g19
g11
NtRp891
(dp892
g14
(lp893
sg16
I-4699213883443200848
sg17
Nsg18
(g9
(g23
g11
NtRp894
((I0
S'19L'
I2
I5
t(dp895
g26
I53
sg14
(lp896
sg16
I-3718610978853045224
sg17
Nsg18
(tsg28
g717
stbg116
g381
g53
tp897
sg28
g78
sg63
I01
sbg9
(g19
g11
NtRp898
(dp899
g14
(lp900
sg16
I-4412362627400958188
sg17
Nsg18
(g9
(g23
g11
NtRp901
((I1
S'19L'
I2
I5
t(dp902
g26
I53
sg14
(lp903
sg16
I-2346872259468522873
sg17
Nsg18
(tsg28
g643
stbg9
(g10
g11
NtRp904
(dp905
g14
(lp906
sg16
I-8866867546158554461
sg17
Nsg18
(g9
(g19
g11
NtRp907
(dp908
g14
(lp909
sg16
I-2987351560487661096
sg17
Nsg18
(g9
(g23
g11
NtRp910
((I0
S'1L'
I0
I1
t(dp911
g26
I53
sg14
(lp912
sg16
I-8838321674194594742
sg17
Nsg18
(tsg28
g643
stbg9
(g10
g11
NtRp913
(dp914
g14
(lp915
sg16
I8206217854138926758
sg17
Nsg18
(g9
(g19
g11
NtRp916
(dp917
g14
(lp918
sg16
I1271161198575757730
sg17
Nsg18
(g9
(g23
g11
NtRp919
((I0
S'1L'
I0
I1
t(dp920
g26
I53
sg14
(lp921
sg16
I-8838321674194594742
sg17
Nsg18
(tsg28
g643
stbg116
g381
g53
tp922
sg28
g78
sg63
I01
sbg9
(g19
g11
NtRp923
(dp924
g14
(lp925
sg16
I9152829386966901927
sg17
Nsg18
(g9
(g23
g11
NtRp926
((I1
S'1L'
I0
I1
t(dp927
g26
I53
sg14
(lp928
sg16
I1652741725224645181
sg17
Nsg18
(tsg28
g643
stbg381
g68
g104
tp929
sg28
g78
sg63
I01
sbtp930
sg28
g285
sg63
I01
sbg156
tp931
sg28
g78
sg63
I01
sbg9
(g19
g11
NtRp932
(dp933
g14
(lp934
sg16
I6188678330885593266
sg17
Nsg18
(g9
(g23
g11
NtRp935
((I0
S'1L'
I0
I1
t(dp936
g26
I53
sg14
(lp937
sg16
I-8838321674194594742
sg17
Nsg18
(tsg28
g643
stbg9
(g10
g11
NtRp938
(dp939
g14
(lp940
sg16
I-3435933671010924245
sg17
Nsg18
(g9
(g19
g11
NtRp941
(dp942
g14
(lp943
sg16
I-4044542757973892499
sg17
Nsg18
(g9
(g23
g11
NtRp944
((I0
S'1L'
I0
I1
t(dp945
g26
I53
sg14
(lp946
sg16
I-8838321674194594742
sg17
Nsg18
(tsg28
g643
stbg381
g53
g68
tp947
sg28
g78
sg63
I01
sbg9
(g19
g11
NtRp948
(dp949
g14
(lp950
sg16
I7292935414821314237
sg17
Nsg18
(g9
(g23
g11
NtRp951
((I0
S'1L'
I0
I1
t(dp952
g26
I53
sg14
(lp953
sg16
I-8838321674194594742
sg17
Nsg18
(tsg28
g643
stbg116
g381
g104
tp954
sg28
g78
sg63
I01
sbtp955
sg28
g285
sg63
I01
sbg123
tp956
sg28
g78
sg63
I01
sbtp957
sg28
g285
sg63
I01
sbg184
tp958
sg28
g78
sg63
I01
sbg9
(g19
g11
NtRp959
(dp960
g14
(lp961
sg16
I2433092481489119865
sg17
Nsg18
(g9
(g23
g11
NtRp962
((I1
S'19L'
I2
I5
t(dp963
g26
I53
sg14
(lp964
sg16
I-2346872259468522873
sg17
Nsg18
(tsg28
g717
stbg381
g68
g104
tp965
sg28
g78
sg63
I01
sbg9
(g19
g11
NtRp966
(dp967
g14
(lp968
sg16
I4796684989092749028
sg17
Nsg18
(g9
(g23
g11
NtRp969
((I1
S'19L'
I2
I5
t(dp970
g26
I53
sg14
(lp971
sg16
I-2346872259468522873
sg17
Nsg18
(tsg28
g643
stbg9
(g10
g11
NtRp972
(dp973
g14
(lp974
sg16
I-2567726877828039108
sg17
Nsg18
(g9
(g19
g11
NtRp975
(dp976
g14
(lp977
sg16
I-7541008939373616601
sg17
Nsg18
(g9
(g23
g11
NtRp978
((I1
S'1L'
I0
I1
t(dp979
g26
I53
sg14
(lp980
sg16
I1652741725224645181
sg17
Nsg18
(tsg28
g643
stbg9
(g10
g11
NtRp981
(dp982
g14
(lp983
sg16
I869681701104540018
sg17
Nsg18
(g9
(g19
g11
NtRp984
(dp985
g14
(lp986
sg16
I-1276556729643845286
sg17
Nsg18
(g9
(g23
g11
NtRp987
((I1
S'1L'
I0
I1
t(dp988
g26
I53
sg14
(lp989
sg16
I1652741725224645181
sg17
Nsg18
(tsg28
g643
stbg938
g156
tp990
sg28
g78
sg63
I01
sbg9
(g19
g11
NtRp991
(dp992
g14
(lp993
sg16
I8255764549723664499
sg17
Nsg18
(g9
(g23
g11
NtRp994
((I0
S'1L'
I0
I1
t(dp995
g26
I53
sg14
(lp996
sg16
I-8838321674194594742
sg17
Nsg18
(tsg28
g643
stbg913
g123
tp997
sg28
g78
sg63
I01
sbtp998
sg28
g285
sg63
I01
sbg236
tp999
sg28
g78
sg63
I01
sbg9
(g19
g11
NtRp1000
(dp1001
g14
(lp1002
sg16
I4717626133492891022
sg17
Nsg18
(g9
(g23
g11
NtRp1003
((I1
S'1L'
I0
I1
t(dp1004
g26
I53
sg14
(lp1005
sg16
I1652741725224645181
sg17
Nsg18
(tsg28
g643
stbg279
g313
tp1006
sg28
g78
sg63
I01
sbtp1007
sg28
g285
sg63
I01
sbg162
tp1008
sg28
g78
sg63
I01
sbtp1009
sg28
g285
sg63
I01
sbag9
(g23
g11
NtRp1010
((I0
S'1L'
I0
I1
t(dp1011
g26
I53
sg14
(lp1012
sg16
Nsg17
Nsg18
(tsg28
g643
stbatbsS'RElbowYaw'
p1013
g3
(g4
(I0
tS'b'
tRp1014
(I1
(I4
I1
tg7
I00
(lp1015
g9
(g10
g11
NtRp1016
(dp1017
g14
(lp1018
sg16
I8383621420269794860
sg17
Nsg18
(g9
(g19
g11
NtRp1019
(dp1020
g14
(lp1021
sg16
I-5662339764514342027
sg17
Nsg18
(g9
(g23
g11
NtRp1022
((I1
S'19L'
I2
I5
t(dp1023
g26
I53
sg14
(lp1024
sg16
I-2346872259468522873
sg17
Nsg18
(tsg28
g643
stbg53
g68
tp1025
sg28
g78
sg63
I01
sbg9
(g19
g11
NtRp1026
(dp1027
g14
(lp1028
sg16
I-5456162090021218833
sg17
Nsg18
(g9
(g23
g11
NtRp1029
((I1
S'25L'
I2
I6
t(dp1030
g26
I53
sg14
(lp1031
sg16
I5888801430113040896
sg17
Nsg18
(tsg28
g643
stbg86
g184
tp1032
sg28
g78
sg63
I01
sbg9
(g19
g11
NtRp1033
(dp1034
g14
(lp1035
sg16
I-1771321987781552748
sg17
Nsg18
(g9
(g23
g11
NtRp1036
((I0
S'25L'
I2
I6
t(dp1037
g26
I53
sg14
(lp1038
sg16
I7839484899910388231
sg17
Nsg18
(tsg28
g643
stbg218
g162
g236
tp1039
sg28
g78
sg63
I01
sbg9
(g19
g11
NtRp1040
(dp1041
g14
(lp1042
sg16
I-456385748557284473
sg17
Nsg18
(g9
(g23
g11
NtRp1043
((I0
S'b9L'
I0
I8
t(dp1044
g26
I53
sg14
(lp1045
sg16
I-3381591462083460617
sg17
Nsg18
(tsg28
(dp1046
g41
I01
sg42
I00
sg43
I01
sg44
I00
sg171
I00
sg45
I00
sg31
I00
sg38
I00
sg32
I00
sg46
I01
sg47
I00
sg48
I00
sg33
I00
sg34
I01
sg35
I01
sg49
I00
sg37
I01
sg39
I01
sg174
I01
sg51
I00
sg278
I01
sg40
I01
sstbg218
g279
g162
tp1047
sg28
g78
sg63
I01
sbg196
g9
(g19
g11
NtRp1048
(dp1049
g14
(lp1050
sg16
I588049676907542869
sg17
Nsg18
(g9
(g23
g11
NtRp1051
((I1
S'19L'
I2
I5
t(dp1052
g26
I53
sg14
(lp1053
sg16
I-2346872259468522873
sg17
Nsg18
(tsg28
g643
stbg116
g104
tp1054
sg28
g78
sg63
I01
sbg9
(g19
g11
NtRp1055
(dp1056
g14
(lp1057
sg16
I3279763533217069469
sg17
Nsg18
(g9
(g23
g11
NtRp1058
((I1
S'fL'
I0
I4
t(dp1059
g26
I53
sg14
(lp1060
sg16
I3752288974540287166
sg17
Nsg18
(tsg28
g643
stbg9
(g10
g11
NtRp1061
(dp1062
g14
(lp1063
sg16
I3648054738295401124
sg17
Nsg18
(g9
(g19
g11
NtRp1064
(dp1065
g14
(lp1066
sg16
I-7119219523000780934
sg17
Nsg18
(g9
(g23
g11
NtRp1067
((I1
S'1L'
I0
I1
t(dp1068
g26
I53
sg14
(lp1069
sg16
I1652741725224645181
sg17
Nsg18
(tsg28
(dp1070
g41
I01
sg42
I00
sg43
I01
sg44
I00
sg30
I01
sg45
I00
sg31
I00
sg38
I01
sg32
I00
sg46
I01
sg47
I00
sg48
I00
sg33
I00
sg34
I01
sg35
I01
sg49
I00
sg37
I01
sg39
I01
sg50
I00
sg51
I00
sg36
I00
sg40
I01
sstbg656
g162
g236
tp1071
sg28
g78
sg63
I01
sbg9
(g19
g11
NtRp1072
(dp1073
g14
(lp1074
sg16
I-3122924533596576627
sg17
Nsg18
(g9
(g23
g11
NtRp1075
((I0
S'1L'
I0
I1
t(dp1076
g26
I53
sg14
(lp1077
sg16
I-8838321674194594742
sg17
Nsg18
(tsg28
(dp1078
g41
I01
sg42
I00
sg43
I01
sg44
I00
sg171
I00
sg45
I00
sg31
I00
sg38
I00
sg32
I00
sg46
I01
sg47
I00
sg48
I00
sg33
I00
sg34
I01
sg35
I01
sg49
I00
sg37
I01
sg39
I01
sg174
I01
sg51
I00
sg278
I01
sg40
I01
sstbg725
g184
tp1079
sg28
g78
sg63
I01
sbtp1080
sg28
g285
sg63
I01
sbg9
(g52
g11
NtRp1081
(dp1082
g17
Nsg18
(g9
(g55
g11
NtRp1083
(dp1084
g14
(lp1085
sg59
S'RShoulderRoll'
p1086
sg17
Nsg18
(tsg28
(dp1087
g62
I00
ssg63
I01
sg16
I-4548477932126297682
sbtp1088
sg14
(lp1089
sg28
(dp1090
sg16
I-2448372321317376677
sbtp1091
sg28
g78
sg63
I01
sbg9
(g19
g11
NtRp1092
(dp1093
g14
(lp1094
sg16
I3447561740825796294
sg17
Nsg18
(g9
(g23
g11
NtRp1095
((I1
S'fL'
I0
I4
t(dp1096
g26
I53
sg14
(lp1097
sg16
I3752288974540287166
sg17
Nsg18
(tsg28
g643
stbg9
(g10
g11
NtRp1098
(dp1099
g14
(lp1100
sg16
I-7802704401731423484
sg17
Nsg18
(g9
(g19
g11
NtRp1101
(dp1102
g14
(lp1103
sg16
I1624405806213680152
sg17
Nsg18
(g9
(g23
g11
NtRp1104
((I0
S'1L'
I0
I1
t(dp1105
g26
I53
sg14
(lp1106
sg16
I-8838321674194594742
sg17
Nsg18
(tsg28
g643
stbg9
(g10
g11
NtRp1107
(dp1108
g14
(lp1109
sg16
I-2811155040430698070
sg17
Nsg18
(g9
(g19
g11
NtRp1110
(dp1111
g14
(lp1112
sg16
I-7362376668732685627
sg17
Nsg18
(g9
(g23
g11
NtRp1113
((I0
S'1L'
I0
I1
t(dp1114
g26
I53
sg14
(lp1115
sg16
I-8838321674194594742
sg17
Nsg18
(tsg28
(dp1116
g41
I01
sg42
I00
sg43
I01
sg44
I00
sg171
I00
sg45
I00
sg31
I00
sg38
I00
sg32
I00
sg46
I01
sg47
I00
sg48
I00
sg33
I00
sg34
I01
sg35
I01
sg49
I00
sg37
I01
sg39
I01
sg174
I01
sg51
I00
sg278
I01
sg40
I01
sstbg9
(g252
g11
NtRp1117
(dp1118
g14
(lp1119
sg17
Nsg18
(g162
g257
tp1120
sg28
g269
sg63
I01
sg16
I-6782309775476576584
sbg725
tp1121
sg28
g78
sg63
I01
sbg9
(g19
g11
NtRp1122
(dp1123
g14
(lp1124
sg16
I979723322161683781
sg17
Nsg18
(g9
(g23
g11
NtRp1125
((I0
S'1L'
I0
I1
t(dp1126
g26
I53
sg14
(lp1127
sg16
I-8838321674194594742
sg17
Nsg18
(tsg28
(dp1128
g41
I01
sg42
I00
sg43
I01
sg44
I00
sg171
I00
sg45
I00
sg31
I00
sg38
I00
sg32
I00
sg46
I01
sg47
I00
sg48
I00
sg33
I00
sg34
I01
sg35
I01
sg49
I00
sg37
I01
sg39
I01
sg174
I01
sg51
I00
sg278
I01
sg40
I01
sstbg656
g162
g236
g184
tp1129
sg28
g78
sg63
I01
sbg9
(g19
g11
NtRp1130
(dp1131
g14
(lp1132
sg16
I8879349143940640207
sg17
Nsg18
(g9
(g23
g11
NtRp1133
((I0
S'1L'
I0
I1
t(dp1134
g26
I53
sg14
(lp1135
sg16
I-8838321674194594742
sg17
Nsg18
(tsg28
(dp1136
g41
I01
sg42
I00
sg43
I01
sg44
I00
sg171
I00
sg45
I00
sg31
I00
sg38
I00
sg32
I00
sg46
I01
sg47
I00
sg48
I00
sg33
I00
sg34
I01
sg35
I01
sg49
I00
sg37
I01
sg39
I01
sg174
I01
sg51
I00
sg278
I01
sg40
I01
sstbg656
g279
g184
tp1137
sg28
g78
sg63
I01
sbtp1138
sg28
g285
sg63
I01
sbg9
(g67
g11
NtRp1139
(dp1140
g17
Nsg18
(g9
(g55
g11
NtRp1141
(dp1142
g14
(lp1143
sg59
S'RShoulderPitch'
p1144
sg17
Nsg18
(tsg28
g1087
sg63
I01
sg16
I-7027358066700686790
sbtp1145
sg14
(lp1146
sg28
(dp1147
sg16
I-5494723403704049668
sbtp1148
sg28
g78
sg63
I01
sbg9
(g19
g11
NtRp1149
(dp1150
g14
(lp1151
sg16
I6142363116482917003
sg17
Nsg18
(g9
(g23
g11
NtRp1152
((I0
S'1L'
I0
I1
t(dp1153
g26
I53
sg14
(lp1154
sg16
I-8838321674194594742
sg17
Nsg18
(tsg28
g643
stbg9
(g10
g11
NtRp1155
(dp1156
g14
(lp1157
sg16
I7124263876075373330
sg17
Nsg18
(g9
(g19
g11
NtRp1158
(dp1159
g14
(lp1160
sg16
I2210293053914163249
sg17
Nsg18
(g9
(g23
g11
NtRp1161
((I1
S'1L'
I0
I1
t(dp1162
g26
I53
sg14
(lp1163
sg16
I1652741725224645181
sg17
Nsg18
(tsg28
(dp1164
g41
I01
sg42
I00
sg43
I01
sg44
I00
sg30
I01
sg45
I00
sg31
I00
sg38
I01
sg32
I00
sg46
I01
sg47
I00
sg48
I00
sg33
I00
sg34
I01
sg35
I01
sg49
I00
sg37
I01
sg39
I01
sg50
I00
sg51
I00
sg36
I00
sg40
I01
sstbg725
g162
g184
tp1165
sg28
g78
sg63
I01
sbg9
(g19
g11
NtRp1166
(dp1167
g14
(lp1168
sg16
I2983071706615388502
sg17
Nsg18
(g9
(g23
g11
NtRp1169
((I1
S'1L'
I0
I1
t(dp1170
g26
I53
sg14
(lp1171
sg16
I1652741725224645181
sg17
Nsg18
(tsg28
(dp1172
g41
I01
sg42
I00
sg43
I01
sg44
I00
sg30
I01
sg45
I00
sg31
I00
sg38
I01
sg32
I00
sg46
I01
sg47
I00
sg48
I00
sg33
I00
sg34
I01
sg35
I01
sg49
I00
sg37
I01
sg39
I01
sg50
I00
sg51
I00
sg36
I00
sg40
I01
sstbg253
g656
g236
tp1173
sg28
g78
sg63
I01
sbg9
(g19
g11
NtRp1174
(dp1175
g14
(lp1176
sg16
I5794376650642654100
sg17
Nsg18
(g9
(g23
g11
NtRp1177
((I0
S'1L'
I0
I1
t(dp1178
g26
I53
sg14
(lp1179
sg16
I-8838321674194594742
sg17
Nsg18
(tsg28
(dp1180
g41
I01
sg42
I00
sg43
I01
sg44
I00
sg171
I00
sg45
I00
sg31
I00
sg38
I00
sg32
I00
sg46
I01
sg47
I00
sg48
I00
sg33
I00
sg34
I01
sg35
I01
sg49
I00
sg37
I01
sg39
I01
sg174
I01
sg51
I00
sg278
I01
sg40
I01
sstbg656
g279
g162
tp1181
sg28
g78
sg63
I01
sbtp1182
sg28
g285
sg63
I01
sbg9
(g52
g11
NtRp1183
(dp1184
g17
Nsg18
(g1141
tp1185
sg14
(lp1186
sg28
g1090
sg16
I-4888804872437199841
sbtp1187
sg28
g78
sg63
I01
sbtp1188
sg28
g285
sg63
I01
sbg9
(g67
g11
NtRp1189
(dp1190
g17
Nsg18
(g1083
tp1191
sg14
(lp1192
sg28
g1147
sg16
I4473227559389738040
sbtp1193
sg28
g78
sg63
I01
sbg9
(g19
g11
NtRp1194
(dp1195
g14
(lp1196
sg16
I4853857114652379393
sg17
Nsg18
(g9
(g23
g11
NtRp1197
((I1
S'69L'
I0
I7
t(dp1198
g26
I53
sg14
(lp1199
sg16
I60220716336317631
sg17
Nsg18
(tsg28
g643
stbg1155
g1139
tp1200
sg28
g78
sg63
I01
sbg9
(g19
g11
NtRp1201
(dp1202
g14
(lp1203
sg16
I6209517400344657737
sg17
Nsg18
(g9
(g23
g11
NtRp1204
((I1
S'b9L'
I0
I8
t(dp1205
g26
I53
sg14
(lp1206
sg16
I-854491074346194472
sg17
Nsg18
(tsg28
(dp1207
g41
I01
sg42
I00
sg43
I01
sg44
I00
sg30
I01
sg45
I00
sg31
I00
sg38
I01
sg32
I00
sg46
I01
sg47
I00
sg48
I00
sg33
I00
sg34
I01
sg35
I01
sg49
I00
sg37
I01
sg39
I01
sg50
I00
sg51
I00
sg36
I00
sg40
I01
sstbg253
g218
g236
tp1208
sg28
g78
sg63
I01
sbg9
(g19
g11
NtRp1209
(dp1210
g14
(lp1211
sg16
I7919328450978587665
sg17
Nsg18
(g9
(g23
g11
NtRp1212
((I0
S'69L'
I0
I7
t(dp1213
g26
I53
sg14
(lp1214
sg16
I2601078411346328320
sg17
Nsg18
(tsg28
g643
stbg1107
g1183
tp1215
sg28
g78
sg63
I01
sbg9
(g19
g11
NtRp1216
(dp1217
g14
(lp1218
sg16
I9222842164249554758
sg17
Nsg18
(g9
(g23
g11
NtRp1219
((I1
S'b9L'
I0
I8
t(dp1220
g26
I53
sg14
(lp1221
sg16
I-854491074346194472
sg17
Nsg18
(tsg28
(dp1222
g41
I01
sg42
I00
sg43
I01
sg44
I00
sg30
I01
sg45
I00
sg31
I00
sg38
I01
sg32
I00
sg46
I01
sg47
I00
sg48
I00
sg33
I00
sg34
I01
sg35
I01
sg49
I00
sg37
I01
sg39
I01
sg50
I00
sg51
I00
sg36
I00
sg40
I01
sstbg86
g162
g184
tp1223
sg28
g78
sg63
I01
sbtp1224
sg28
g285
sg63
I01
sbag9
(g10
g11
NtRp1225
(dp1226
g14
(lp1227
sg16
I2502222761617951540
sg17
Nsg18
(g9
(g19
g11
NtRp1228
(dp1229
g14
(lp1230
sg16
I-8604874176265609328
sg17
Nsg18
(g9
(g23
g11
NtRp1231
((I1
S'fL'
I0
I4
t(dp1232
g26
I53
sg14
(lp1233
sg16
I3752288974540287166
sg17
Nsg18
(tsg28
g643
stbg9
(g10
g11
NtRp1234
(dp1235
g14
(lp1236
sg16
I7316751620855111605
sg17
Nsg18
(g9
(g19
g11
NtRp1237
(dp1238
g14
(lp1239
sg16
I3571403025186434641
sg17
Nsg18
(g9
(g23
g11
NtRp1240
((I0
S'1L'
I0
I1
t(dp1241
g26
I53
sg14
(lp1242
sg16
I-8838321674194594742
sg17
Nsg18
(tsg28
(dp1243
g41
I01
sg42
I00
sg43
I01
sg44
I00
sg171
I00
sg45
I00
sg31
I00
sg38
I00
sg32
I00
sg46
I01
sg47
I00
sg48
I00
sg33
I00
sg34
I01
sg35
I01
sg49
I00
sg37
I01
sg39
I01
sg174
I01
sg51
I00
sg278
I01
sg40
I01
sstbg782
g184
tp1244
sg28
g78
sg63
I01
sbg9
(g19
g11
NtRp1245
(dp1246
g14
(lp1247
sg16
I7647440650736474491
sg17
Nsg18
(g9
(g23
g11
NtRp1248
((I0
S'1L'
I0
I1
t(dp1249
g26
I53
sg14
(lp1250
sg16
I-8838321674194594742
sg17
Nsg18
(tsg28
(dp1251
g41
I01
sg42
I00
sg43
I01
sg44
I00
sg171
I00
sg45
I00
sg31
I00
sg38
I00
sg32
I00
sg46
I01
sg47
I00
sg48
I00
sg33
I00
sg34
I01
sg35
I01
sg49
I00
sg37
I01
sg39
I01
sg174
I01
sg51
I00
sg278
I01
sg40
I01
sstbg843
g162
tp1252
sg28
g78
sg63
I01
sbtp1253
sg28
g285
sg63
I01
sbg1081
tp1254
sg28
g78
sg63
I01
sbg9
(g19
g11
NtRp1255
(dp1256
g14
(lp1257
sg16
I-6028252711473520983
sg17
Nsg18
(g9
(g23
g11
NtRp1258
((I0
S'b9L'
I0
I8
t(dp1259
g26
I53
sg14
(lp1260
sg16
I-3381591462083460617
sg17
Nsg18
(tsg28
(dp1261
g41
I01
sg42
I00
sg43
I01
sg44
I00
sg171
I00
sg45
I00
sg31
I00
sg38
I00
sg32
I00
sg46
I01
sg47
I00
sg48
I00
sg33
I00
sg34
I01
sg35
I01
sg49
I00
sg37
I01
sg39
I01
sg174
I01
sg51
I00
sg278
I01
sg40
I01
sstbg420
g162
tp1262
sg28
g78
sg63
I01
sbg9
(g19
g11
NtRp1263
(dp1264
g14
(lp1265
sg16
I-5847701269560757110
sg17
Nsg18
(g9
(g23
g11
NtRp1266
((I0
S'b9L'
I0
I8
t(dp1267
g26
I53
sg14
(lp1268
sg16
I-3381591462083460617
sg17
Nsg18
(tsg28
(dp1269
g41
I01
sg42
I00
sg43
I01
sg44
I00
sg171
I00
sg45
I00
sg31
I00
sg38
I00
sg32
I00
sg46
I01
sg47
I00
sg48
I00
sg33
I00
sg34
I01
sg35
I01
sg49
I00
sg37
I01
sg39
I01
sg174
I01
sg51
I00
sg278
I01
sg40
I01
sstbg253
g372
tp1270
sg28
g78
sg63
I01
sbg9
(g19
g11
NtRp1271
(dp1272
g14
(lp1273
sg16
I-5236429561155569884
sg17
Nsg18
(g9
(g23
g11
NtRp1274
((I1
S'69L'
I0
I7
t(dp1275
g26
I53
sg14
(lp1276
sg16
I60220716336317631
sg17
Nsg18
(tsg28
g643
stbg9
(g10
g11
NtRp1277
(dp1278
g14
(lp1279
sg16
I-3378892695844743773
sg17
Nsg18
(g9
(g19
g11
NtRp1280
(dp1281
g14
(lp1282
sg16
I-6499883575204918995
sg17
Nsg18
(g9
(g23
g11
NtRp1283
((I1
S'1L'
I0
I1
t(dp1284
g26
I53
sg14
(lp1285
sg16
I1652741725224645181
sg17
Nsg18
(tsg28
(dp1286
g41
I01
sg42
I00
sg43
I01
sg44
I00
sg30
I01
sg45
I00
sg31
I00
sg38
I01
sg32
I00
sg46
I01
sg47
I00
sg48
I00
sg33
I00
sg34
I01
sg35
I01
sg49
I00
sg37
I01
sg39
I01
sg50
I00
sg51
I00
sg36
I00
sg40
I01
sstbg782
g162
g184
tp1287
sg28
g78
sg63
I01
sbg9
(g19
g11
NtRp1288
(dp1289
g14
(lp1290
sg16
I-2286561296674849621
sg17
Nsg18
(g9
(g23
g11
NtRp1291
((I0
S'1L'
I0
I1
t(dp1292
g26
I53
sg14
(lp1293
sg16
I-8838321674194594742
sg17
Nsg18
(tsg28
(dp1294
g41
I01
sg42
I00
sg43
I01
sg44
I00
sg171
I00
sg45
I00
sg31
I00
sg38
I00
sg32
I00
sg46
I01
sg47
I00
sg48
I00
sg33
I00
sg34
I01
sg35
I01
sg49
I00
sg37
I01
sg39
I01
sg174
I01
sg51
I00
sg278
I01
sg40
I01
sstbg253
g843
tp1295
sg28
g78
sg63
I01
sbg9
(g19
g11
NtRp1296
(dp1297
g14
(lp1298
sg16
I8436440777985805280
sg17
Nsg18
(g9
(g23
g11
NtRp1299
((I0
S'1L'
I0
I1
t(dp1300
g26
I53
sg14
(lp1301
sg16
I-8838321674194594742
sg17
Nsg18
(tsg28
(dp1302
g41
I01
sg42
I00
sg43
I01
sg44
I00
sg171
I00
sg45
I00
sg31
I00
sg38
I00
sg32
I00
sg46
I01
sg47
I00
sg48
I00
sg33
I00
sg34
I01
sg35
I01
sg49
I00
sg37
I01
sg39
I01
sg174
I01
sg51
I00
sg278
I01
sg40
I01
sstbg9
(g10
g11
NtRp1303
(dp1304
g14
(lp1305
sg16
I6833547604045752061
sg17
Nsg18
(g9
(g19
g11
NtRp1306
(dp1307
g14
(lp1308
sg16
I-2479784656774793651
sg17
Nsg18
(g9
(g23
g11
NtRp1309
((I0
S'1L'
I0
I1
t(dp1310
g26
I53
sg14
(lp1311
sg16
I-8838321674194594742
sg17
Nsg18
(tsg28
g643
stbg381
g236
tp1312
sg28
g78
sg63
I01
sbg9
(g19
g11
NtRp1313
(dp1314
g14
(lp1315
sg16
I-778721528649578881
sg17
Nsg18
(g9
(g23
g11
NtRp1316
((I0
S'1L'
I0
I1
t(dp1317
g26
I53
sg14
(lp1318
sg16
I-8838321674194594742
sg17
Nsg18
(tsg28
g643
stbg859
g279
tp1319
sg28
g78
sg63
I01
sbtp1320
sg28
g285
sg63
I01
sbg162
tp1321
sg28
g78
sg63
I01
sbtp1322
sg28
g285
sg63
I01
sbg1139
tp1323
sg28
g78
sg63
I01
sbg9
(g19
g11
NtRp1324
(dp1325
g14
(lp1326
sg16
I-1264424222296630190
sg17
Nsg18
(g9
(g23
g11
NtRp1327
((I1
S'b9L'
I0
I8
t(dp1328
g26
I53
sg14
(lp1329
sg16
I-854491074346194472
sg17
Nsg18
(tsg28
(dp1330
g41
I01
sg42
I00
sg43
I01
sg44
I00
sg30
I01
sg45
I00
sg31
I00
sg38
I01
sg32
I00
sg46
I01
sg47
I00
sg48
I00
sg33
I00
sg34
I01
sg35
I01
sg49
I00
sg37
I01
sg39
I01
sg50
I00
sg51
I00
sg36
I00
sg40
I01
sstbg295
g162
g184
tp1331
sg28
g78
sg63
I01
sbg9
(g19
g11
NtRp1332
(dp1333
g14
(lp1334
sg16
I-1081260079889664940
sg17
Nsg18
(g9
(g23
g11
NtRp1335
((I1
S'fL'
I0
I4
t(dp1336
g26
I53
sg14
(lp1337
sg16
I3752288974540287166
sg17
Nsg18
(tsg28
g643
stbg9
(g10
g11
NtRp1338
(dp1339
g14
(lp1340
sg16
I-9155484404456070018
sg17
Nsg18
(g9
(g19
g11
NtRp1341
(dp1342
g14
(lp1343
sg16
I-3061126027743297619
sg17
Nsg18
(g9
(g23
g11
NtRp1344
((I0
S'1L'
I0
I1
t(dp1345
g26
I53
sg14
(lp1346
sg16
I-8838321674194594742
sg17
Nsg18
(tsg28
g643
stbg9
(g10
g11
NtRp1347
(dp1348
g14
(lp1349
sg16
I-514784124303679293
sg17
Nsg18
(g9
(g19
g11
NtRp1350
(dp1351
g14
(lp1352
sg16
I-7594498900165947077
sg17
Nsg18
(g9
(g23
g11
NtRp1353
((I0
S'1L'
I0
I1
t(dp1354
g26
I53
sg14
(lp1355
sg16
I-8838321674194594742
sg17
Nsg18
(tsg28
(dp1356
g41
I01
sg42
I00
sg43
I01
sg44
I00
sg171
I00
sg45
I00
sg31
I00
sg38
I00
sg32
I00
sg46
I01
sg47
I00
sg48
I00
sg33
I00
sg34
I01
sg35
I01
sg49
I00
sg37
I01
sg39
I01
sg174
I01
sg51
I00
sg278
I01
sg40
I01
sstbg1303
g184
tp1357
sg28
g78
sg63
I01
sbg9
(g19
g11
NtRp1358
(dp1359
g14
(lp1360
sg16
I-1571417660277729351
sg17
Nsg18
(g9
(g23
g11
NtRp1361
((I0
S'1L'
I0
I1
t(dp1362
g26
I53
sg14
(lp1363
sg16
I-8838321674194594742
sg17
Nsg18
(tsg28
(dp1364
g41
I01
sg42
I00
sg43
I01
sg44
I00
sg171
I00
sg45
I00
sg31
I00
sg38
I00
sg32
I00
sg46
I01
sg47
I00
sg48
I00
sg33
I00
sg34
I01
sg35
I01
sg49
I00
sg37
I01
sg39
I01
sg174
I01
sg51
I00
sg278
I01
sg40
I01
sstbg1117
g782
tp1365
sg28
g78
sg63
I01
sbg9
(g19
g11
NtRp1366
(dp1367
g14
(lp1368
sg16
I2834647823685845460
sg17
Nsg18
(g9
(g23
g11
NtRp1369
((I1
S'1L'
I0
I1
t(dp1370
g26
I53
sg14
(lp1371
sg16
I1652741725224645181
sg17
Nsg18
(tsg28
(dp1372
g41
I01
sg42
I00
sg43
I01
sg44
I00
sg30
I01
sg45
I00
sg31
I00
sg38
I01
sg32
I00
sg46
I01
sg47
I00
sg48
I00
sg33
I00
sg34
I01
sg35
I01
sg49
I00
sg37
I01
sg39
I01
sg50
I00
sg51
I00
sg36
I00
sg40
I01
sstbg843
g162
g184
tp1373
sg28
g78
sg63
I01
sbtp1374
sg28
g285
sg63
I01
sbg1139
tp1375
sg28
g78
sg63
I01
sbg9
(g19
g11
NtRp1376
(dp1377
g14
(lp1378
sg16
I4972791175219758998
sg17
Nsg18
(g9
(g23
g11
NtRp1379
((I0
S'1L'
I0
I1
t(dp1380
g26
I53
sg14
(lp1381
sg16
I-8838321674194594742
sg17
Nsg18
(tsg28
g643
stbg1277
g1183
tp1382
sg28
g78
sg63
I01
sbtp1383
sg28
g285
sg63
I01
sbg1189
tp1384
sg28
g78
sg63
I01
sbg9
(g19
g11
NtRp1385
(dp1386
g14
(lp1387
sg16
I-828627904193422321
sg17
Nsg18
(g9
(g23
g11
NtRp1388
((I0
S'19L'
I2
I5
t(dp1389
g26
I53
sg14
(lp1390
sg16
I-3718610978853045224
sg17
Nsg18
(tsg28
g643
stbg116
g53
g313
tp1391
sg28
g78
sg63
I01
sbg9
(g19
g11
NtRp1392
(dp1393
g14
(lp1394
sg16
I3179208869680003355
sg17
Nsg18
(g9
(g23
g11
NtRp1395
((I0
S'cdccccccccccdL'
I-45
I52
t(dp1396
g26
I53
sg14
(lp1397
sg16
I-2031544583562847888
sg17
Nsg18
(tsg28
g643
stbg116
g313
tp1398
sg28
g78
sg63
I01
sbg9
(g19
g11
NtRp1399
(dp1400
g14
(lp1401
sg16
I4095490653871073430
sg17
Nsg18
(g9
(g23
g11
NtRp1402
((I1
S'19L'
I2
I5
t(dp1403
g26
I53
sg14
(lp1404
sg16
I-2346872259468522873
sg17
Nsg18
(tsg28
g643
stbg68
g313
g104
tp1405
sg28
g78
sg63
I01
sbg9
(g19
g11
NtRp1406
(dp1407
g14
(lp1408
sg16
I5861863978694320516
sg17
Nsg18
(g9
(g23
g11
NtRp1409
((I0
S'69L'
I0
I7
t(dp1410
g26
I53
sg14
(lp1411
sg16
I2601078411346328320
sg17
Nsg18
(tsg28
g643
stbg1347
g1183
tp1412
sg28
g78
sg63
I01
sbg9
(g19
g11
NtRp1413
(dp1414
g14
(lp1415
sg16
I5874660999336797113
sg17
Nsg18
(g9
(g23
g11
NtRp1416
((I1
S'25L'
I2
I6
t(dp1417
g26
I53
sg14
(lp1418
sg16
I5888801430113040896
sg17
Nsg18
(tsg28
g643
stbg372
g162
tp1419
sg28
g78
sg63
I01
sbg9
(g19
g11
NtRp1420
(dp1421
g14
(lp1422
sg16
I7750906248970908595
sg17
Nsg18
(g9
(g23
g11
NtRp1423
((I1
S'25L'
I2
I6
t(dp1424
g26
I53
sg14
(lp1425
sg16
I5888801430113040896
sg17
Nsg18
(tsg28
g643
stbg295
g184
tp1426
sg28
g78
sg63
I01
sbtp1427
sg28
g285
sg63
I01
sbag9
(g10
g11
NtRp1428
(dp1429
g14
(lp1430
sg16
I-9077762584273246067
sg17
Nsg18
(g9
(g19
g11
NtRp1431
(dp1432
g14
(lp1433
sg16
I-6940851620223266034
sg17
Nsg18
(g9
(g23
g11
NtRp1434
((I1
S'69L'
I0
I7
t(dp1435
g26
I53
sg14
(lp1436
sg16
I60220716336317631
sg17
Nsg18
(tsg28
g643
stbg9
(g10
g11
NtRp1437
(dp1438
g14
(lp1439
sg16
I-4935293785287143855
sg17
Nsg18
(g9
(g19
g11
NtRp1440
(dp1441
g14
(lp1442
sg16
I-8355090931909214891
sg17
Nsg18
(g9
(g23
g11
NtRp1443
((I0
S'1L'
I0
I1
t(dp1444
g26
I53
sg14
(lp1445
sg16
I-8838321674194594742
sg17
Nsg18
(tsg28
(dp1446
g41
I01
sg42
I00
sg43
I01
sg44
I00
sg171
I00
sg45
I00
sg31
I00
sg38
I00
sg32
I00
sg46
I01
sg47
I00
sg48
I00
sg33
I00
sg34
I01
sg35
I01
sg49
I00
sg37
I01
sg39
I01
sg174
I01
sg51
I00
sg278
I01
sg40
I01
sstbg253
g972
tp1447
sg28
g78
sg63
I01
sbg9
(g19
g11
NtRp1448
(dp1449
g14
(lp1450
sg16
I-4118043016549787836
sg17
Nsg18
(g9
(g23
g11
NtRp1451
((I0
S'1L'
I0
I1
t(dp1452
g26
I53
sg14
(lp1453
sg16
I-8838321674194594742
sg17
Nsg18
(tsg28
(dp1454
g41
I01
sg42
I00
sg43
I01
sg44
I00
sg171
I00
sg45
I00
sg31
I00
sg38
I00
sg32
I00
sg46
I01
sg47
I00
sg48
I00
sg33
I00
sg34
I01
sg35
I01
sg49
I00
sg37
I01
sg39
I01
sg174
I01
sg51
I00
sg278
I01
sg40
I01
sstbg9
(g10
g11
NtRp1455
(dp1456
g14
(lp1457
sg16
I-6146831059513941967
sg17
Nsg18
(g9
(g19
g11
NtRp1458
(dp1459
g14
(lp1460
sg16
I-1045122955126418447
sg17
Nsg18
(g9
(g23
g11
NtRp1461
((I1
S'1L'
I0
I1
t(dp1462
g26
I53
sg14
(lp1463
sg16
I1652741725224645181
sg17
Nsg18
(tsg28
g643
stbg313
g236
tp1464
sg28
g78
sg63
I01
sbg9
(g19
g11
NtRp1465
(dp1466
g14
(lp1467
sg16
I6032198764046301303
sg17
Nsg18
(g9
(g23
g11
NtRp1468
((I0
S'1L'
I0
I1
t(dp1469
g26
I53
sg14
(lp1470
sg16
I-8838321674194594742
sg17
Nsg18
(tsg28
g643
stbg981
g279
tp1471
sg28
g78
sg63
I01
sbtp1472
sg28
g285
sg63
I01
sbg162
tp1473
sg28
g78
sg63
I01
sbg9
(g19
g11
NtRp1474
(dp1475
g14
(lp1476
sg16
I2764585535601455561
sg17
Nsg18
(g9
(g23
g11
NtRp1477
((I1
S'1L'
I0
I1
t(dp1478
g26
I53
sg14
(lp1479
sg16
I1652741725224645181
sg17
Nsg18
(tsg28
(dp1480
g41
I01
sg42
I00
sg43
I01
sg44
I00
sg30
I01
sg45
I00
sg31
I00
sg38
I01
sg32
I00
sg46
I01
sg47
I00
sg48
I00
sg33
I00
sg34
I01
sg35
I01
sg49
I00
sg37
I01
sg39
I01
sg50
I00
sg51
I00
sg36
I00
sg40
I01
sstbg904
g162
g184
tp1481
sg28
g78
sg63
I01
sbtp1482
sg28
g285
sg63
I01
sbg1139
tp1483
sg28
g78
sg63
I01
sbg9
(g19
g11
NtRp1484
(dp1485
g14
(lp1486
sg16
I-6357318494324546892
sg17
Nsg18
(g9
(g23
g11
NtRp1487
((I0
S'b9L'
I0
I8
t(dp1488
g26
I53
sg14
(lp1489
sg16
I-3381591462083460617
sg17
Nsg18
(tsg28
(dp1490
g41
I01
sg42
I00
sg43
I01
sg44
I00
sg171
I00
sg45
I00
sg31
I00
sg38
I00
sg32
I00
sg46
I01
sg47
I00
sg48
I00
sg33
I00
sg34
I01
sg35
I01
sg49
I00
sg37
I01
sg39
I01
sg174
I01
sg51
I00
sg278
I01
sg40
I01
sstbg253
g553
tp1491
sg28
g78
sg63
I01
sbg9
(g19
g11
NtRp1492
(dp1493
g14
(lp1494
sg16
I-6355515863310072651
sg17
Nsg18
(g9
(g23
g11
NtRp1495
((I0
S'b9L'
I0
I8
t(dp1496
g26
I53
sg14
(lp1497
sg16
I-3381591462083460617
sg17
Nsg18
(tsg28
(dp1498
g41
I01
sg42
I00
sg43
I01
sg44
I00
sg171
I00
sg45
I00
sg31
I00
sg38
I00
sg32
I00
sg46
I01
sg47
I00
sg48
I00
sg33
I00
sg34
I01
sg35
I01
sg49
I00
sg37
I01
sg39
I01
sg174
I01
sg51
I00
sg278
I01
sg40
I01
sstbg620
g162
tp1499
sg28
g78
sg63
I01
sbg9
(g19
g11
NtRp1500
(dp1501
g14
(lp1502
sg16
I-5481660358300881344
sg17
Nsg18
(g9
(g23
g11
NtRp1503
((I0
S'cdccccccccccdL'
I-45
I52
t(dp1504
g26
I53
sg14
(lp1505
sg16
I-2031544583562847888
sg17
Nsg18
(tsg28
g643
stbg116
g381
tp1506
sg28
g78
sg63
I01
sbg9
(g19
g11
NtRp1507
(dp1508
g14
(lp1509
sg16
I-4699213883443200848
sg17
Nsg18
(g9
(g23
g11
NtRp1510
((I0
S'19L'
I2
I5
t(dp1511
g26
I53
sg14
(lp1512
sg16
I-3718610978853045224
sg17
Nsg18
(tsg28
g643
stbg116
g381
g53
tp1513
sg28
g78
sg63
I01
sbg9
(g19
g11
NtRp1514
(dp1515
g14
(lp1516
sg16
I1144381336215830167
sg17
Nsg18
(g9
(g23
g11
NtRp1517
((I1
S'25L'
I2
I6
t(dp1518
g26
I53
sg14
(lp1519
sg16
I5888801430113040896
sg17
Nsg18
(tsg28
g643
stbg553
g162
tp1520
sg28
g78
sg63
I01
sbg9
(g19
g11
NtRp1521
(dp1522
g14
(lp1523
sg16
I1535661615626048862
sg17
Nsg18
(g9
(g23
g11
NtRp1524
((I1
S'fL'
I0
I4
t(dp1525
g26
I53
sg14
(lp1526
sg16
I3752288974540287166
sg17
Nsg18
(tsg28
g643
stbg9
(g10
g11
NtRp1527
(dp1528
g14
(lp1529
sg16
I-4309048908606465701
sg17
Nsg18
(g9
(g19
g11
NtRp1530
(dp1531
g14
(lp1532
sg16
I3939283102843743653
sg17
Nsg18
(g9
(g23
g11
NtRp1533
((I0
S'1L'
I0
I1
t(dp1534
g26
I53
sg14
(lp1535
sg16
I-8838321674194594742
sg17
Nsg18
(tsg28
(dp1536
g41
I01
sg42
I00
sg43
I01
sg44
I00
sg171
I00
sg45
I00
sg31
I00
sg38
I00
sg32
I00
sg46
I01
sg47
I00
sg48
I00
sg33
I00
sg34
I01
sg35
I01
sg49
I00
sg37
I01
sg39
I01
sg174
I01
sg51
I00
sg278
I01
sg40
I01
sstbg972
g162
tp1537
sg28
g78
sg63
I01
sbg9
(g19
g11
NtRp1538
(dp1539
g14
(lp1540
sg16
I8058915656836780709
sg17
Nsg18
(g9
(g23
g11
NtRp1541
((I0
S'1L'
I0
I1
t(dp1542
g26
I53
sg14
(lp1543
sg16
I-8838321674194594742
sg17
Nsg18
(tsg28
(dp1544
g41
I01
sg42
I00
sg43
I01
sg44
I00
sg171
I00
sg45
I00
sg31
I00
sg38
I00
sg32
I00
sg46
I01
sg47
I00
sg48
I00
sg33
I00
sg34
I01
sg35
I01
sg49
I00
sg37
I01
sg39
I01
sg174
I01
sg51
I00
sg278
I01
sg40
I01
sstbg904
g184
tp1545
sg28
g78
sg63
I01
sbtp1546
sg28
g285
sg63
I01
sbg1081
tp1547
sg28
g78
sg63
I01
sbg9
(g19
g11
NtRp1548
(dp1549
g14
(lp1550
sg16
I2154026528026471358
sg17
Nsg18
(g9
(g23
g11
NtRp1551
((I1
S'fL'
I0
I4
t(dp1552
g26
I53
sg14
(lp1553
sg16
I3752288974540287166
sg17
Nsg18
(tsg28
g643
stbg9
(g10
g11
NtRp1554
(dp1555
g14
(lp1556
sg16
I8104353762834994156
sg17
Nsg18
(g9
(g19
g11
NtRp1557
(dp1558
g14
(lp1559
sg16
I1464332030355678652
sg17
Nsg18
(g9
(g23
g11
NtRp1560
((I0
S'1L'
I0
I1
t(dp1561
g26
I53
sg14
(lp1562
sg16
I-8838321674194594742
sg17
Nsg18
(tsg28
g643
stbg1437
g1183
tp1563
sg28
g78
sg63
I01
sbg9
(g19
g11
NtRp1564
(dp1565
g14
(lp1566
sg16
I6042174588978175879
sg17
Nsg18
(g9
(g23
g11
NtRp1567
((I0
S'1L'
I0
I1
t(dp1568
g26
I53
sg14
(lp1569
sg16
I-8838321674194594742
sg17
Nsg18
(tsg28
g643
stbg9
(g10
g11
NtRp1570
(dp1571
g14
(lp1572
sg16
I1869788651969205889
sg17
Nsg18
(g9
(g19
g11
NtRp1573
(dp1574
g14
(lp1575
sg16
I-2505109609742105958
sg17
Nsg18
(g9
(g23
g11
NtRp1576
((I1
S'1L'
I0
I1
t(dp1577
g26
I53
sg14
(lp1578
sg16
I1652741725224645181
sg17
Nsg18
(tsg28
(dp1579
g41
I01
sg42
I00
sg43
I01
sg44
I00
sg30
I01
sg45
I00
sg31
I00
sg38
I01
sg32
I00
sg46
I01
sg47
I00
sg48
I00
sg33
I00
sg34
I01
sg35
I01
sg49
I00
sg37
I01
sg39
I01
sg50
I00
sg51
I00
sg36
I00
sg40
I01
sstbg972
g162
g184
tp1580
sg28
g78
sg63
I01
sbg9
(g19
g11
NtRp1581
(dp1582
g14
(lp1583
sg16
I-2190664827428777667
sg17
Nsg18
(g9
(g23
g11
NtRp1584
((I0
S'1L'
I0
I1
t(dp1585
g26
I53
sg14
(lp1586
sg16
I-8838321674194594742
sg17
Nsg18
(tsg28
(dp1587
g41
I01
sg42
I00
sg43
I01
sg44
I00
sg171
I00
sg45
I00
sg31
I00
sg38
I00
sg32
I00
sg46
I01
sg47
I00
sg48
I00
sg33
I00
sg34
I01
sg35
I01
sg49
I00
sg37
I01
sg39
I01
sg174
I01
sg51
I00
sg278
I01
sg40
I01
sstbg1117
g904
tp1588
sg28
g78
sg63
I01
sbg9
(g19
g11
NtRp1589
(dp1590
g14
(lp1591
sg16
I8624057823287906527
sg17
Nsg18
(g9
(g23
g11
NtRp1592
((I0
S'1L'
I0
I1
t(dp1593
g26
I53
sg14
(lp1594
sg16
I-8838321674194594742
sg17
Nsg18
(tsg28
(dp1595
g41
I01
sg42
I00
sg43
I01
sg44
I00
sg171
I00
sg45
I00
sg31
I00
sg38
I00
sg32
I00
sg46
I01
sg47
I00
sg48
I00
sg33
I00
sg34
I01
sg35
I01
sg49
I00
sg37
I01
sg39
I01
sg174
I01
sg51
I00
sg278
I01
sg40
I01
sstbg1455
g184
tp1596
sg28
g78
sg63
I01
sbtp1597
sg28
g285
sg63
I01
sbg1139
tp1598
sg28
g78
sg63
I01
sbtp1599
sg28
g285
sg63
I01
sbg1189
tp1600
sg28
g78
sg63
I01
sbg9
(g19
g11
NtRp1601
(dp1602
g14
(lp1603
sg16
I2433092481489119865
sg17
Nsg18
(g9
(g23
g11
NtRp1604
((I1
S'19L'
I2
I5
t(dp1605
g26
I53
sg14
(lp1606
sg16
I-2346872259468522873
sg17
Nsg18
(tsg28
g643
stbg381
g68
g104
tp1607
sg28
g78
sg63
I01
sbg9
(g19
g11
NtRp1608
(dp1609
g14
(lp1610
sg16
I2609979626416438126
sg17
Nsg18
(g9
(g23
g11
NtRp1611
((I1
S'b9L'
I0
I8
t(dp1612
g26
I53
sg14
(lp1613
sg16
I-854491074346194472
sg17
Nsg18
(tsg28
(dp1614
g41
I01
sg42
I00
sg43
I01
sg44
I00
sg30
I01
sg45
I00
sg31
I00
sg38
I01
sg32
I00
sg46
I01
sg47
I00
sg48
I00
sg33
I00
sg34
I01
sg35
I01
sg49
I00
sg37
I01
sg39
I01
sg50
I00
sg51
I00
sg36
I00
sg40
I01
sstbg478
g162
g184
tp1615
sg28
g78
sg63
I01
sbg9
(g19
g11
NtRp1616
(dp1617
g14
(lp1618
sg16
I6587093999043126926
sg17
Nsg18
(g9
(g23
g11
NtRp1619
((I0
S'69L'
I0
I7
t(dp1620
g26
I53
sg14
(lp1621
sg16
I2601078411346328320
sg17
Nsg18
(tsg28
g643
stbg1570
g1183
tp1622
sg28
g78
sg63
I01
sbg9
(g19
g11
NtRp1623
(dp1624
g14
(lp1625
sg16
I7878421397134167959
sg17
Nsg18
(g9
(g23
g11
NtRp1626
((I1
S'25L'
I2
I6
t(dp1627
g26
I53
sg14
(lp1628
sg16
I5888801430113040896
sg17
Nsg18
(tsg28
g643
stbg478
g184
tp1629
sg28
g78
sg63
I01
sbtp1630
sg28
g285
sg63
I01
sbag9
(g23
g11
NtRp1631
((I0
S'1L'
I0
I1
t(dp1632
g26
I53
sg14
(lp1633
sg16
Nsg17
Nsg18
(tsg28
g643
stbatbsg1144
g3
(g4
(I0
tS'b'
tRp1634
(I1
(I4
I1
tg7
I00
(lp1635
g9
(g10
g11
NtRp1636
(dp1637
g14
(lp1638
sg16
I-1945154940192394795
sg17
Nsg18
(g9
(g19
g11
NtRp1639
(dp1640
g14
(lp1641
sg16
I-5662339764514342027
sg17
Nsg18
(g9
(g23
g11
NtRp1642
((I1
S'19L'
I2
I5
t(dp1643
g26
I53
sg14
(lp1644
sg16
I-2346872259468522873
sg17
Nsg18
(tsg28
(dp1645
g41
I01
sg34
I01
sg43
I01
sg44
I00
sg45
I00
sg31
I00
sg33
I00
sg37
I01
sg39
I01
sg49
I00
sg32
I00
sg51
I00
sg46
I01
sg47
I00
sg48
I00
sg40
I01
sg42
I00
sg35
I01
sstbg53
g68
tp1646
sg28
g78
sg63
I01
sbg9
(g19
g11
NtRp1647
(dp1648
g14
(lp1649
sg16
I-5456162090021218833
sg17
Nsg18
(g9
(g23
g11
NtRp1650
((I1
S'25L'
I2
I6
t(dp1651
g26
I53
sg14
(lp1652
sg16
I5888801430113040896
sg17
Nsg18
(tsg28
g643
stbg86
g184
tp1653
sg28
g78
sg63
I01
sbg9
(g19
g11
NtRp1654
(dp1655
g14
(lp1656
sg16
I-1771321987781552748
sg17
Nsg18
(g9
(g23
g11
NtRp1657
((I0
S'25L'
I2
I6
t(dp1658
g26
I53
sg14
(lp1659
sg16
I7839484899910388231
sg17
Nsg18
(tsg28
g643
stbg218
g162
g236
tp1660
sg28
g78
sg63
I01
sbg9
(g19
g11
NtRp1661
(dp1662
g14
(lp1663
sg16
I-456385748557284473
sg17
Nsg18
(g9
(g23
g11
NtRp1664
((I0
S'b9L'
I0
I8
t(dp1665
g26
I53
sg14
(lp1666
sg16
I-3381591462083460617
sg17
Nsg18
(tsg28
g643
stbg218
g279
g162
tp1667
sg28
g78
sg63
I01
sbg196
g9
(g19
g11
NtRp1668
(dp1669
g14
(lp1670
sg16
I588049676907542869
sg17
Nsg18
(g9
(g23
g11
NtRp1671
((I1
S'19L'
I2
I5
t(dp1672
g26
I53
sg14
(lp1673
sg16
I-2346872259468522873
sg17
Nsg18
(tsg28
g1645
stbg116
g104
tp1674
sg28
g78
sg63
I01
sbg9
(g19
g11
NtRp1675
(dp1676
g14
(lp1677
sg16
I6209517400344657737
sg17
Nsg18
(g9
(g23
g11
NtRp1678
((I1
S'b9L'
I0
I8
t(dp1679
g26
I53
sg14
(lp1680
sg16
I-854491074346194472
sg17
Nsg18
(tsg28
g643
stbg253
g218
g236
tp1681
sg28
g78
sg63
I01
sbg9
(g19
g11
NtRp1682
(dp1683
g14
(lp1684
sg16
I9222842164249554758
sg17
Nsg18
(g9
(g23
g11
NtRp1685
((I1
S'b9L'
I0
I8
t(dp1686
g26
I53
sg14
(lp1687
sg16
I-854491074346194472
sg17
Nsg18
(tsg28
g643
stbg86
g162
g184
tp1688
sg28
g78
sg63
I01
sbtp1689
sg28
g285
sg63
I01
sbag9
(g10
g11
NtRp1690
(dp1691
g14
(lp1692
sg16
I2958070937760023696
sg17
Nsg18
(g9
(g19
g11
NtRp1693
(dp1694
g14
(lp1695
sg16
I-6028252711473520983
sg17
Nsg18
(g9
(g23
g11
NtRp1696
((I0
S'b9L'
I0
I8
t(dp1697
g26
I53
sg14
(lp1698
sg16
I-3381591462083460617
sg17
Nsg18
(tsg28
g643
stbg420
g162
tp1699
sg28
g78
sg63
I01
sbg9
(g19
g11
NtRp1700
(dp1701
g14
(lp1702
sg16
I-5847701269560757110
sg17
Nsg18
(g9
(g23
g11
NtRp1703
((I0
S'b9L'
I0
I8
t(dp1704
g26
I53
sg14
(lp1705
sg16
I-3381591462083460617
sg17
Nsg18
(tsg28
g643
stbg253
g372
tp1706
sg28
g78
sg63
I01
sbg9
(g19
g11
NtRp1707
(dp1708
g14
(lp1709
sg16
I-1264424222296630190
sg17
Nsg18
(g9
(g23
g11
NtRp1710
((I1
S'b9L'
I0
I8
t(dp1711
g26
I53
sg14
(lp1712
sg16
I-854491074346194472
sg17
Nsg18
(tsg28
g643
stbg295
g162
g184
tp1713
sg28
g78
sg63
I01
sbg9
(g19
g11
NtRp1714
(dp1715
g14
(lp1716
sg16
I-828627904193422321
sg17
Nsg18
(g9
(g23
g11
NtRp1717
((I0
S'19L'
I2
I5
t(dp1718
g26
I53
sg14
(lp1719
sg16
I-3718610978853045224
sg17
Nsg18
(tsg28
g1645
stbg116
g53
g313
tp1720
sg28
g78
sg63
I01
sbg9
(g19
g11
NtRp1721
(dp1722
g14
(lp1723
sg16
I3179208869680003355
sg17
Nsg18
(g9
(g23
g11
NtRp1724
((I0
S'cdccccccccccdL'
I-45
I52
t(dp1725
g26
I53
sg14
(lp1726
sg16
I-2031544583562847888
sg17
Nsg18
(tsg28
g1645
stbg116
g313
tp1727
sg28
g78
sg63
I01
sbg9
(g19
g11
NtRp1728
(dp1729
g14
(lp1730
sg16
I4095490653871073430
sg17
Nsg18
(g9
(g23
g11
NtRp1731
((I1
S'19L'
I2
I5
t(dp1732
g26
I53
sg14
(lp1733
sg16
I-2346872259468522873
sg17
Nsg18
(tsg28
g1645
stbg68
g313
g104
tp1734
sg28
g78
sg63
I01
sbg9
(g19
g11
NtRp1735
(dp1736
g14
(lp1737
sg16
I5874660999336797113
sg17
Nsg18
(g9
(g23
g11
NtRp1738
((I1
S'25L'
I2
I6
t(dp1739
g26
I53
sg14
(lp1740
sg16
I5888801430113040896
sg17
Nsg18
(tsg28
g643
stbg372
g162
tp1741
sg28
g78
sg63
I01
sbg9
(g19
g11
NtRp1742
(dp1743
g14
(lp1744
sg16
I7750906248970908595
sg17
Nsg18
(g9
(g23
g11
NtRp1745
((I1
S'25L'
I2
I6
t(dp1746
g26
I53
sg14
(lp1747
sg16
I5888801430113040896
sg17
Nsg18
(tsg28
g643
stbg295
g184
tp1748
sg28
g78
sg63
I01
sbtp1749
sg28
g285
sg63
I01
sbag9
(g10
g11
NtRp1750
(dp1751
g14
(lp1752
sg16
I-4655372825576505411
sg17
Nsg18
(g9
(g19
g11
NtRp1753
(dp1754
g14
(lp1755
sg16
I-6357318494324546892
sg17
Nsg18
(g9
(g23
g11
NtRp1756
((I0
S'b9L'
I0
I8
t(dp1757
g26
I53
sg14
(lp1758
sg16
I-3381591462083460617
sg17
Nsg18
(tsg28
g643
stbg253
g553
tp1759
sg28
g78
sg63
I01
sbg9
(g19
g11
NtRp1760
(dp1761
g14
(lp1762
sg16
I-6355515863310072651
sg17
Nsg18
(g9
(g23
g11
NtRp1763
((I0
S'b9L'
I0
I8
t(dp1764
g26
I53
sg14
(lp1765
sg16
I-3381591462083460617
sg17
Nsg18
(tsg28
g643
stbg620
g162
tp1766
sg28
g78
sg63
I01
sbg9
(g19
g11
NtRp1767
(dp1768
g14
(lp1769
sg16
I-5481660358300881344
sg17
Nsg18
(g9
(g23
g11
NtRp1770
((I0
S'cdccccccccccdL'
I-45
I52
t(dp1771
g26
I53
sg14
(lp1772
sg16
I-2031544583562847888
sg17
Nsg18
(tsg28
g1645
stbg116
g381
tp1773
sg28
g78
sg63
I01
sbg9
(g19
g11
NtRp1774
(dp1775
g14
(lp1776
sg16
I-4699213883443200848
sg17
Nsg18
(g9
(g23
g11
NtRp1777
((I0
S'19L'
I2
I5
t(dp1778
g26
I53
sg14
(lp1779
sg16
I-3718610978853045224
sg17
Nsg18
(tsg28
g1645
stbg116
g381
g53
tp1780
sg28
g78
sg63
I01
sbg9
(g19
g11
NtRp1781
(dp1782
g14
(lp1783
sg16
I1144381336215830167
sg17
Nsg18
(g9
(g23
g11
NtRp1784
((I1
S'25L'
I2
I6
t(dp1785
g26
I53
sg14
(lp1786
sg16
I5888801430113040896
sg17
Nsg18
(tsg28
g643
stbg553
g162
tp1787
sg28
g78
sg63
I01
sbg9
(g19
g11
NtRp1788
(dp1789
g14
(lp1790
sg16
I2433092481489119865
sg17
Nsg18
(g9
(g23
g11
NtRp1791
((I1
S'19L'
I2
I5
t(dp1792
g26
I53
sg14
(lp1793
sg16
I-2346872259468522873
sg17
Nsg18
(tsg28
g1645
stbg381
g68
g104
tp1794
sg28
g78
sg63
I01
sbg9
(g19
g11
NtRp1795
(dp1796
g14
(lp1797
sg16
I2609979626416438126
sg17
Nsg18
(g9
(g23
g11
NtRp1798
((I1
S'b9L'
I0
I8
t(dp1799
g26
I53
sg14
(lp1800
sg16
I-854491074346194472
sg17
Nsg18
(tsg28
g643
stbg478
g162
g184
tp1801
sg28
g78
sg63
I01
sbg9
(g19
g11
NtRp1802
(dp1803
g14
(lp1804
sg16
I7878421397134167959
sg17
Nsg18
(g9
(g23
g11
NtRp1805
((I1
S'25L'
I2
I6
t(dp1806
g26
I53
sg14
(lp1807
sg16
I5888801430113040896
sg17
Nsg18
(tsg28
g643
stbg478
g184
tp1808
sg28
g78
sg63
I01
sbtp1809
sg28
g285
sg63
I01
sbag9
(g23
g11
NtRp1810
((I0
S'1L'
I0
I1
t(dp1811
g26
I53
sg14
(lp1812
sg16
Nsg17
Nsg18
(tsg28
g643
stbatbsS'LShoulderPitch'
p1813
g3
(g4
(I0
tS'b'
tRp1814
(I1
(I4
I1
tg7
I00
(lp1815
g9
(g10
g11
NtRp1816
(dp1817
g14
(lp1818
sg16
I3765812882541899283
sg17
Nsg18
(g9
(g19
g11
NtRp1819
(dp1820
g14
(lp1821
sg16
I-5662339764514342027
sg17
Nsg18
(g9
(g23
g11
NtRp1822
((I1
S'19L'
I2
I5
t(dp1823
g26
I53
sg14
(lp1824
sg16
I-2346872259468522873
sg17
Nsg18
(tsg28
(dp1825
g41
I01
sg34
I01
sg43
I01
sg44
I00
sg45
I00
sg31
I00
sg33
I00
sg37
I01
sg39
I01
sg49
I00
sg32
I00
sg51
I00
sg46
I01
sg47
I00
sg48
I00
sg40
I01
sg42
I00
sg35
I01
sstbg53
g68
tp1826
sg28
g78
sg63
I01
sbg9
(g19
g11
NtRp1827
(dp1828
g14
(lp1829
sg16
I-1784087611993409719
sg17
Nsg18
(g9
(g23
g11
NtRp1830
((I1
S'3L'
I4
I2
t(dp1831
g26
I53
sg14
(lp1832
sg16
I2669681814860609964
sg17
Nsg18
(tsg28
g643
stbg218
g162
g236
tp1833
sg28
g78
sg63
I01
sbg9
(g19
g11
NtRp1834
(dp1835
g14
(lp1836
sg16
I-607848979730707792
sg17
Nsg18
(g9
(g23
g11
NtRp1837
((I0
S'3L'
I4
I2
t(dp1838
g26
I53
sg14
(lp1839
sg16
I8290848331410560139
sg17
Nsg18
(tsg28
g643
stbg86
g184
tp1840
sg28
g78
sg63
I01
sbg9
(g19
g11
NtRp1841
(dp1842
g14
(lp1843
sg16
I-456385748557284473
sg17
Nsg18
(g9
(g23
g11
NtRp1844
((I0
S'b9L'
I0
I8
t(dp1845
g26
I53
sg14
(lp1846
sg16
I-3381591462083460617
sg17
Nsg18
(tsg28
g643
stbg218
g279
g162
tp1847
sg28
g78
sg63
I01
sbg196
g9
(g19
g11
NtRp1848
(dp1849
g14
(lp1850
sg16
I588049676907542869
sg17
Nsg18
(g9
(g23
g11
NtRp1851
((I1
S'19L'
I2
I5
t(dp1852
g26
I53
sg14
(lp1853
sg16
I-2346872259468522873
sg17
Nsg18
(tsg28
g1825
stbg116
g104
tp1854
sg28
g78
sg63
I01
sbg9
(g19
g11
NtRp1855
(dp1856
g14
(lp1857
sg16
I6209517400344657737
sg17
Nsg18
(g9
(g23
g11
NtRp1858
((I1
S'b9L'
I0
I8
t(dp1859
g26
I53
sg14
(lp1860
sg16
I-854491074346194472
sg17
Nsg18
(tsg28
g643
stbg253
g218
g236
tp1861
sg28
g78
sg63
I01
sbg9
(g19
g11
NtRp1862
(dp1863
g14
(lp1864
sg16
I9222842164249554758
sg17
Nsg18
(g9
(g23
g11
NtRp1865
((I1
S'b9L'
I0
I8
t(dp1866
g26
I53
sg14
(lp1867
sg16
I-854491074346194472
sg17
Nsg18
(tsg28
g643
stbg86
g162
g184
tp1868
sg28
g78
sg63
I01
sbtp1869
sg28
g285
sg63
I01
sbag9
(g10
g11
NtRp1870
(dp1871
g14
(lp1872
sg16
I3029998950221335912
sg17
Nsg18
(g9
(g19
g11
NtRp1873
(dp1874
g14
(lp1875
sg16
I-7795302454093903836
sg17
Nsg18
(g9
(g23
g11
NtRp1876
((I0
S'3L'
I4
I2
t(dp1877
g26
I53
sg14
(lp1878
sg16
I8290848331410560139
sg17
Nsg18
(tsg28
g643
stbg295
g184
tp1879
sg28
g78
sg63
I01
sbg9
(g19
g11
NtRp1880
(dp1881
g14
(lp1882
sg16
I-7445833449962676410
sg17
Nsg18
(g9
(g23
g11
NtRp1883
((I0
S'3L'
I4
I2
t(dp1884
g26
I53
sg14
(lp1885
sg16
I8290848331410560139
sg17
Nsg18
(tsg28
g643
stbg372
g162
tp1886
sg28
g78
sg63
I01
sbg9
(g19
g11
NtRp1887
(dp1888
g14
(lp1889
sg16
I-6028252711473520983
sg17
Nsg18
(g9
(g23
g11
NtRp1890
((I0
S'b9L'
I0
I8
t(dp1891
g26
I53
sg14
(lp1892
sg16
I-3381591462083460617
sg17
Nsg18
(tsg28
g643
stbg420
g162
tp1893
sg28
g78
sg63
I01
sbg9
(g19
g11
NtRp1894
(dp1895
g14
(lp1896
sg16
I-5847701269560757110
sg17
Nsg18
(g9
(g23
g11
NtRp1897
((I0
S'b9L'
I0
I8
t(dp1898
g26
I53
sg14
(lp1899
sg16
I-3381591462083460617
sg17
Nsg18
(tsg28
g643
stbg253
g372
tp1900
sg28
g78
sg63
I01
sbg9
(g19
g11
NtRp1901
(dp1902
g14
(lp1903
sg16
I-1264424222296630190
sg17
Nsg18
(g9
(g23
g11
NtRp1904
((I1
S'b9L'
I0
I8
t(dp1905
g26
I53
sg14
(lp1906
sg16
I-854491074346194472
sg17
Nsg18
(tsg28
g643
stbg295
g162
g184
tp1907
sg28
g78
sg63
I01
sbg9
(g19
g11
NtRp1908
(dp1909
g14
(lp1910
sg16
I-828627904193422321
sg17
Nsg18
(g9
(g23
g11
NtRp1911
((I0
S'19L'
I2
I5
t(dp1912
g26
I53
sg14
(lp1913
sg16
I-3718610978853045224
sg17
Nsg18
(tsg28
g1825
stbg116
g53
g313
tp1914
sg28
g78
sg63
I01
sbg9
(g19
g11
NtRp1915
(dp1916
g14
(lp1917
sg16
I3179208869680003355
sg17
Nsg18
(g9
(g23
g11
NtRp1918
((I0
S'cdccccccccccdL'
I-45
I52
t(dp1919
g26
I53
sg14
(lp1920
sg16
I-2031544583562847888
sg17
Nsg18
(tsg28
g1825
stbg116
g313
tp1921
sg28
g78
sg63
I01
sbg9
(g19
g11
NtRp1922
(dp1923
g14
(lp1924
sg16
I4095490653871073430
sg17
Nsg18
(g9
(g23
g11
NtRp1925
((I1
S'19L'
I2
I5
t(dp1926
g26
I53
sg14
(lp1927
sg16
I-2346872259468522873
sg17
Nsg18
(tsg28
g1825
stbg68
g313
g104
tp1928
sg28
g78
sg63
I01
sbtp1929
sg28
g285
sg63
I01
sbag9
(g10
g11
NtRp1930
(dp1931
g14
(lp1932
sg16
I660196125840080069
sg17
Nsg18
(g9
(g19
g11
NtRp1933
(dp1934
g14
(lp1935
sg16
I-6357318494324546892
sg17
Nsg18
(g9
(g23
g11
NtRp1936
((I0
S'b9L'
I0
I8
t(dp1937
g26
I53
sg14
(lp1938
sg16
I-3381591462083460617
sg17
Nsg18
(tsg28
g643
stbg253
g553
tp1939
sg28
g78
sg63
I01
sbg9
(g19
g11
NtRp1940
(dp1941
g14
(lp1942
sg16
I-6355515863310072651
sg17
Nsg18
(g9
(g23
g11
NtRp1943
((I0
S'b9L'
I0
I8
t(dp1944
g26
I53
sg14
(lp1945
sg16
I-3381591462083460617
sg17
Nsg18
(tsg28
g643
stbg620
g162
tp1946
sg28
g78
sg63
I01
sbg9
(g19
g11
NtRp1947
(dp1948
g14
(lp1949
sg16
I-5481660358300881344
sg17
Nsg18
(g9
(g23
g11
NtRp1950
((I0
S'cdccccccccccdL'
I-45
I52
t(dp1951
g26
I53
sg14
(lp1952
sg16
I-2031544583562847888
sg17
Nsg18
(tsg28
g1825
stbg116
g381
tp1953
sg28
g78
sg63
I01
sbg9
(g19
g11
NtRp1954
(dp1955
g14
(lp1956
sg16
I-4699213883443200848
sg17
Nsg18
(g9
(g23
g11
NtRp1957
((I0
S'19L'
I2
I5
t(dp1958
g26
I53
sg14
(lp1959
sg16
I-3718610978853045224
sg17
Nsg18
(tsg28
g1825
stbg116
g381
g53
tp1960
sg28
g78
sg63
I01
sbg9
(g19
g11
NtRp1961
(dp1962
g14
(lp1963
sg16
I2433092481489119865
sg17
Nsg18
(g9
(g23
g11
NtRp1964
((I1
S'19L'
I2
I5
t(dp1965
g26
I53
sg14
(lp1966
sg16
I-2346872259468522873
sg17
Nsg18
(tsg28
g1825
stbg381
g68
g104
tp1967
sg28
g78
sg63
I01
sbg9
(g19
g11
NtRp1968
(dp1969
g14
(lp1970
sg16
I2522763366393611072
sg17
Nsg18
(g9
(g23
g11
NtRp1971
((I0
S'3L'
I4
I2
t(dp1972
g26
I53
sg14
(lp1973
sg16
I8290848331410560139
sg17
Nsg18
(tsg28
g643
stbg553
g162
tp1974
sg28
g78
sg63
I01
sbg9
(g19
g11
NtRp1975
(dp1976
g14
(lp1977
sg16
I2609979626416438126
sg17
Nsg18
(g9
(g23
g11
NtRp1978
((I1
S'b9L'
I0
I8
t(dp1979
g26
I53
sg14
(lp1980
sg16
I-854491074346194472
sg17
Nsg18
(tsg28
g643
stbg478
g162
g184
tp1981
sg28
g78
sg63
I01
sbg9
(g19
g11
NtRp1982
(dp1983
g14
(lp1984
sg16
I5526387971849255560
sg17
Nsg18
(g9
(g23
g11
NtRp1985
((I0
S'3L'
I4
I2
t(dp1986
g26
I53
sg14
(lp1987
sg16
I8290848331410560139
sg17
Nsg18
(tsg28
g643
stbg478
g184
tp1988
sg28
g78
sg63
I01
sbtp1989
sg28
g285
sg63
I01
sbag9
(g23
g11
NtRp1990
((I0
S'1L'
I0
I1
t(dp1991
g26
I53
sg14
(lp1992
sg16
Nsg17
Nsg18
(tsg28
g643
stbatbsg60
g3
(g4
(I0
tS'b'
tRp1993
(I1
(I4
I1
tg7
I00
(lp1994
g196
ag9
(g19
g11
NtRp1995
(dp1996
g14
(lp1997
sg16
I3179208869680003355
sg17
Nsg18
(g9
(g23
g11
NtRp1998
((I0
S'cdccccccccccdL'
I-45
I52
t(dp1999
g26
I53
sg14
(lp2000
sg16
I-2031544583562847888
sg17
Nsg18
(tsg28
g643
stbg116
g313
tp2001
sg28
g78
sg63
I01
sbag9
(g19
g11
NtRp2002
(dp2003
g14
(lp2004
sg16
I-5481660358300881344
sg17
Nsg18
(g9
(g23
g11
NtRp2005
((I0
S'cdccccccccccdL'
I-45
I52
t(dp2006
g26
I53
sg14
(lp2007
sg16
I-2031544583562847888
sg17
Nsg18
(tsg28
g643
stbg116
g381
tp2008
sg28
g78
sg63
I01
sbag9
(g23
g11
NtRp2009
((I0
S'1L'
I0
I1
t(dp2010
g26
I53
sg14
(lp2011
sg16
Nsg17
Nsg18
(tsg28
g643
stbatbsS'RAnkleRoll'
p2012
g3
(g4
(I0
tS'b'
tRp2013
(I1
(I4
I1
tg7
I00
(lp2014
g9
(g10
g11
NtRp2015
(dp2016
g14
(lp2017
sg16
I-2047420998207104107
sg17
Nsg18
(g9
(g19
g11
NtRp2018
(dp2019
g14
(lp2020
sg16
I-8009663761771334323
sg17
Nsg18
(g9
(g23
g11
NtRp2021
((I0
S'19L'
I2
I5
t(dp2022
g26
I53
sg14
(lp2023
sg16
I-3718610978853045224
sg17
Nsg18
(tsg28
(dp2024
g41
I01
sg42
I00
sg43
I01
sg44
I00
sg171
I00
sg45
I00
sg31
I00
sg38
I00
sg32
I00
sg46
I01
sg47
I00
sg48
I00
sg33
I00
sg34
I01
sg35
I01
sg49
I00
sg37
I01
sg39
I01
sg174
I01
sg51
I00
sg278
I01
sg40
I01
sstbg656
g162
g236
tp2025
sg28
g78
sg63
I01
sbg9
(g19
g11
NtRp2026
(dp2027
g14
(lp2028
sg16
I-5662339764514342027
sg17
Nsg18
(g1022
g53
g68
tp2029
sg28
g78
sg63
I01
sbg9
(g19
g11
NtRp2030
(dp2031
g14
(lp2032
sg16
I-3298461398192634516
sg17
Nsg18
(g9
(g23
g11
NtRp2033
((I1
S'19L'
I2
I5
t(dp2034
g26
I53
sg14
(lp2035
sg16
I-2346872259468522873
sg17
Nsg18
(tsg28
(dp2036
g41
I01
sg42
I00
sg43
I01
sg44
I00
sg30
I01
sg45
I00
sg31
I00
sg38
I01
sg32
I00
sg46
I01
sg47
I00
sg48
I00
sg33
I00
sg34
I01
sg35
I01
sg49
I00
sg37
I01
sg39
I01
sg50
I00
sg51
I00
sg36
I00
sg40
I01
sstbg725
g184
tp2037
sg28
g78
sg63
I01
sbg196
g9
(g19
g11
NtRp2038
(dp2039
g14
(lp2040
sg16
I588049676907542869
sg17
Nsg18
(g1051
g116
g104
tp2041
sg28
g78
sg63
I01
sbg9
(g19
g11
NtRp2042
(dp2043
g14
(lp2044
sg16
I1260697175143177638
sg17
Nsg18
(g9
(g23
g11
NtRp2045
((I1
S'19L'
I2
I5
t(dp2046
g26
I53
sg14
(lp2047
sg16
I-2346872259468522873
sg17
Nsg18
(tsg28
(dp2048
g41
I01
sg42
I00
sg43
I01
sg44
I00
sg30
I01
sg45
I00
sg31
I00
sg38
I01
sg32
I00
sg46
I01
sg47
I00
sg48
I00
sg33
I00
sg34
I01
sg35
I01
sg49
I00
sg37
I01
sg39
I01
sg50
I00
sg51
I00
sg36
I00
sg40
I01
sstbg9
(g10
g11
NtRp2049
(dp2050
g14
(lp2051
sg16
I4626640350848364984
sg17
Nsg18
(g9
(g19
g11
NtRp2052
(dp2053
g14
(lp2054
sg16
I-545251899039451198
sg17
Nsg18
(g9
(g23
g11
NtRp2055
((I1
S'1L'
I0
I1
t(dp2056
g26
I53
sg14
(lp2057
sg16
I1652741725224645181
sg17
Nsg18
(tsg28
(dp2058
g41
I01
sg42
I00
sg43
I01
sg44
I00
sg30
I01
sg45
I00
sg31
I00
sg38
I01
sg32
I00
sg46
I01
sg47
I00
sg48
I00
sg33
I00
sg34
I01
sg35
I01
sg49
I00
sg37
I01
sg39
I01
sg50
I00
sg51
I00
sg36
I00
sg40
I01
sstbg9
(g10
g11
NtRp2059
(dp2060
g14
(lp2061
sg16
I-9125002515211834395
sg17
Nsg18
(g9
(g19
g11
NtRp2062
(dp2063
g14
(lp2064
sg16
I-5771461412326508169
sg17
Nsg18
(g9
(g23
g11
NtRp2065
((I0
S'1L'
I0
I1
t(dp2066
g26
I53
sg14
(lp2067
sg16
I-8838321674194594742
sg17
Nsg18
(tsg28
(dp2068
g41
I01
sg42
I00
sg43
I01
sg44
I00
sg171
I00
sg45
I00
sg31
I00
sg38
I00
sg32
I00
sg46
I01
sg47
I00
sg48
I00
sg33
I00
sg34
I01
sg35
I01
sg49
I00
sg37
I01
sg39
I01
sg174
I01
sg51
I00
sg278
I01
sg40
I01
sstbg1061
g9
(g52
g11
NtRp2069
(dp2070
g17
Nsg18
(g9
(g19
g11
NtRp2071
(dp2072
g14
(lp2073
sg16
I-4897894229503079548
sg17
Nsg18
(g9
(g23
g11
NtRp2074
((I0
S'1L'
I-1
I1
t(dp2075
g26
I53
sg14
(lp2076
sg16
I5953416778363468544
sg17
Nsg18
(tsg28
(dp2077
g41
I01
sg42
I00
sg43
I01
sg44
I00
sg171
I00
sg45
I00
sg31
I00
sg173
I00
sg32
I00
sg46
I01
sg47
I00
sg48
I00
sg33
I00
sg34
I01
sg35
I01
sg49
I00
sg37
I01
sg39
I01
sg174
I01
sg51
I00
sg172
I01
sg40
I01
sstbg9
(g55
g11
NtRp2078
(dp2079
g14
(lp2080
sg59
S'RHipYawPitch'
p2081
sg17
Nsg18
(tsg28
g1087
sg63
I01
sg16
I-5793360570553647636
sbtp2082
sg28
(dp2083
g181
I00
ssg63
I01
sbtp2084
sg14
(lp2085
sg28
g1090
sg16
I6846700968409470429
sbtp2086
sg28
g78
sg63
I01
sbg9
(g19
g11
NtRp2087
(dp2088
g14
(lp2089
sg16
I-1465427722757729427
sg17
Nsg18
(g9
(g23
g11
NtRp2090
((I1
S'1L'
I0
I1
t(dp2091
g26
I53
sg14
(lp2092
sg16
I1652741725224645181
sg17
Nsg18
(tsg28
(dp2093
g41
I01
sg42
I00
sg43
I01
sg44
I00
sg30
I01
sg45
I00
sg31
I00
sg38
I01
sg32
I00
sg46
I01
sg47
I00
sg48
I00
sg33
I00
sg34
I01
sg35
I01
sg49
I00
sg37
I01
sg39
I01
sg50
I00
sg51
I00
sg36
I00
sg40
I01
sstbg1107
g9
(g67
g11
NtRp2094
(dp2095
g17
Nsg18
(g2071
tp2096
sg14
(lp2097
sg28
g1147
sg16
I3913187467881909434
sbtp2098
sg28
g78
sg63
I01
sbtp2099
sg28
g285
sg63
I01
sbg9
(g67
g11
NtRp2100
(dp2101
g17
Nsg18
(g9
(g55
g11
NtRp2102
(dp2103
g14
(lp2104
sg59
S'RHipRoll'
p2105
sg17
Nsg18
(tsg28
g1087
sg63
I01
sg16
I-1885549387084301136
sbtp2106
sg14
(lp2107
sg28
g1147
sg16
I-5606816324853154402
sbtp2108
sg28
g78
sg63
I01
sbg9
(g19
g11
NtRp2109
(dp2110
g14
(lp2111
sg16
I5977199759170865377
sg17
Nsg18
(g9
(g23
g11
NtRp2112
((I0
S'1L'
I0
I1
t(dp2113
g26
I53
sg14
(lp2114
sg16
I-8838321674194594742
sg17
Nsg18
(tsg28
(dp2115
g41
I01
sg42
I00
sg43
I01
sg44
I00
sg171
I00
sg45
I00
sg31
I00
sg38
I00
sg32
I00
sg46
I01
sg47
I00
sg48
I00
sg33
I00
sg34
I01
sg35
I01
sg49
I00
sg37
I01
sg39
I01
sg174
I01
sg51
I00
sg278
I01
sg40
I01
sstbg9
(g10
g11
NtRp2116
(dp2117
g14
(lp2118
sg16
I54223374861460398
sg17
Nsg18
(g9
(g19
g11
NtRp2119
(dp2120
g14
(lp2121
sg16
I-8773664830187251131
sg17
Nsg18
(g9
(g23
g11
NtRp2122
((I0
S'1L'
I0
I1
t(dp2123
g26
I53
sg14
(lp2124
sg16
I-8838321674194594742
sg17
Nsg18
(tsg28
(dp2125
g41
I01
sg42
I00
sg43
I01
sg44
I00
sg171
I00
sg45
I00
sg31
I00
sg38
I00
sg32
I00
sg46
I01
sg47
I00
sg48
I00
sg33
I00
sg34
I01
sg35
I01
sg49
I00
sg37
I01
sg39
I01
sg174
I01
sg51
I00
sg278
I01
sg40
I01
sstbg1107
g2069
g2094
tp2126
sg28
g78
sg63
I01
sbg9
(g19
g11
NtRp2127
(dp2128
g14
(lp2129
sg16
I-4076141071673453449
sg17
Nsg18
(g9
(g23
g11
NtRp2130
((I0
S'1L'
I0
I1
t(dp2131
g26
I53
sg14
(lp2132
sg16
I-8838321674194594742
sg17
Nsg18
(tsg28
(dp2133
g41
I01
sg42
I00
sg43
I01
sg44
I00
sg171
I00
sg45
I00
sg31
I00
sg38
I00
sg32
I00
sg46
I01
sg47
I00
sg48
I00
sg33
I00
sg34
I01
sg35
I01
sg49
I00
sg37
I01
sg39
I01
sg174
I01
sg51
I00
sg278
I01
sg40
I01
sstbg9
(g252
g11
NtRp2134
(dp2135
g14
(lp2136
sg17
Nsg18
(g2094
g257
tp2137
sg28
(dp2138
sg63
I01
sg16
I-6998185883858428151
sbg1061
tp2139
sg28
g78
sg63
I01
sbg9
(g19
g11
NtRp2140
(dp2141
g14
(lp2142
sg16
I7434007344757871353
sg17
Nsg18
(g9
(g23
g11
NtRp2143
((I0
S'1L'
I0
I1
t(dp2144
g26
I53
sg14
(lp2145
sg16
I-8838321674194594742
sg17
Nsg18
(tsg28
(dp2146
g41
I01
sg42
I00
sg43
I01
sg44
I00
sg171
I00
sg45
I00
sg31
I00
sg38
I00
sg32
I00
sg46
I01
sg47
I00
sg48
I00
sg33
I00
sg34
I01
sg35
I01
sg49
I00
sg37
I01
sg39
I01
sg174
I01
sg51
I00
sg278
I01
sg40
I01
sstbg1155
g2069
tp2147
sg28
g78
sg63
I01
sbtp2148
sg28
g285
sg63
I01
sbg9
(g52
g11
NtRp2149
(dp2150
g17
Nsg18
(g2102
tp2151
sg14
(lp2152
sg28
g1090
sg16
I-2688724537447946559
sbtp2153
sg28
g78
sg63
I01
sbtp2154
sg28
g285
sg63
I01
sbg9
(g52
g11
NtRp2155
(dp2156
g17
Nsg18
(g9
(g55
g11
NtRp2157
(dp2158
g14
(lp2159
sg59
g644
sg17
Nsg18
(tsg28
g1087
sg63
I01
sg16
I8412941724497341072
sbtp2160
sg14
(lp2161
sg28
g1090
sg16
I5858248208270685473
sbtp2162
sg28
g78
sg63
I01
sbg9
(g19
g11
NtRp2163
(dp2164
g14
(lp2165
sg16
I1940064851773446620
sg17
Nsg18
(g9
(g23
g11
NtRp2166
((I1
S'cdccccccccccdL'
I-45
I52
t(dp2167
g26
I53
sg14
(lp2168
sg16
I6674920830780898407
sg17
Nsg18
(tsg28
(dp2169
g41
I01
sg42
I00
sg43
I01
sg44
I00
sg30
I01
sg45
I00
sg31
I00
sg38
I01
sg32
I00
sg46
I01
sg47
I00
sg48
I00
sg33
I00
sg34
I01
sg35
I01
sg49
I00
sg37
I01
sg39
I01
sg50
I00
sg51
I00
sg36
I00
sg40
I01
sstbg9
(g10
g11
NtRp2170
(dp2171
g14
(lp2172
sg16
I26152742918667148
sg17
Nsg18
(g9
(g19
g11
NtRp2173
(dp2174
g14
(lp2175
sg16
I1882979159156454667
sg17
Nsg18
(g9
(g23
g11
NtRp2176
((I1
S'1L'
I0
I1
t(dp2177
g26
I53
sg14
(lp2178
sg16
I1652741725224645181
sg17
Nsg18
(tsg28
(dp2179
g41
I01
sg42
I00
sg43
I01
sg44
I00
sg30
I01
sg45
I00
sg31
I00
sg38
I01
sg32
I00
sg46
I01
sg47
I00
sg48
I00
sg33
I00
sg34
I01
sg35
I01
sg49
I00
sg37
I01
sg39
I01
sg50
I00
sg51
I00
sg36
I00
sg40
I01
sstbg2049
g9
(g67
g11
NtRp2180
(dp2181
g17
Nsg18
(g2157
tp2182
sg14
(lp2183
sg28
g1147
sg16
I-9099541077812990978
sbtp2184
sg28
g78
sg63
I01
sbg9
(g19
g11
NtRp2185
(dp2186
g14
(lp2187
sg16
I6880674209686460210
sg17
Nsg18
(g9
(g23
g11
NtRp2188
((I0
S'1L'
I0
I1
t(dp2189
g26
I53
sg14
(lp2190
sg16
I-8838321674194594742
sg17
Nsg18
(tsg28
(dp2191
g41
I01
sg42
I00
sg43
I01
sg44
I00
sg171
I00
sg45
I00
sg31
I00
sg38
I00
sg32
I00
sg46
I01
sg47
I00
sg48
I00
sg33
I00
sg34
I01
sg35
I01
sg49
I00
sg37
I01
sg39
I01
sg174
I01
sg51
I00
sg278
I01
sg40
I01
sstbg9
(g10
g11
NtRp2192
(dp2193
g14
(lp2194
sg16
I4424461217871470921
sg17
Nsg18
(g9
(g19
g11
NtRp2195
(dp2196
g14
(lp2197
sg16
I-8550194690002205605
sg17
Nsg18
(g9
(g23
g11
NtRp2198
((I0
S'1L'
I0
I1
t(dp2199
g26
I53
sg14
(lp2200
sg16
I-8838321674194594742
sg17
Nsg18
(tsg28
(dp2201
g41
I01
sg42
I00
sg43
I01
sg44
I00
sg171
I00
sg45
I00
sg31
I00
sg38
I00
sg32
I00
sg46
I01
sg47
I00
sg48
I00
sg33
I00
sg34
I01
sg35
I01
sg49
I00
sg37
I01
sg39
I01
sg174
I01
sg51
I00
sg278
I01
sg40
I01
sstbg1061
g2069
g2094
tp2202
sg28
g78
sg63
I01
sbg9
(g19
g11
NtRp2203
(dp2204
g14
(lp2205
sg16
I3015523111948569893
sg17
Nsg18
(g9
(g23
g11
NtRp2206
((I1
S'1L'
I0
I1
t(dp2207
g26
I53
sg14
(lp2208
sg16
I1652741725224645181
sg17
Nsg18
(tsg28
(dp2209
g41
I01
sg42
I00
sg43
I01
sg44
I00
sg30
I01
sg45
I00
sg31
I00
sg38
I01
sg32
I00
sg46
I01
sg47
I00
sg48
I00
sg33
I00
sg34
I01
sg35
I01
sg49
I00
sg37
I01
sg39
I01
sg50
I00
sg51
I00
sg36
I00
sg40
I01
sstbg1155
g2094
tp2210
sg28
g78
sg63
I01
sbg9
(g19
g11
NtRp2211
(dp2212
g14
(lp2213
sg16
I8207927717834843586
sg17
Nsg18
(g9
(g23
g11
NtRp2214
((I0
S'1L'
I0
I1
t(dp2215
g26
I53
sg14
(lp2216
sg16
I-8838321674194594742
sg17
Nsg18
(tsg28
(dp2217
g41
I01
sg42
I00
sg43
I01
sg44
I00
sg171
I00
sg45
I00
sg31
I00
sg38
I00
sg32
I00
sg46
I01
sg47
I00
sg48
I00
sg33
I00
sg34
I01
sg35
I01
sg49
I00
sg37
I01
sg39
I01
sg174
I01
sg51
I00
sg278
I01
sg40
I01
sstbg9
(g252
g11
NtRp2218
(dp2219
g14
(lp2220
sg17
Nsg18
(g2069
g257
tp2221
sg28
g2138
sg63
I01
sg16
I8149098662168283486
sbg1107
tp2222
sg28
g78
sg63
I01
sbtp2223
sg28
g285
sg63
I01
sbg2155
tp2224
sg28
g78
sg63
I01
sbtp2225
sg28
g285
sg63
I01
sbg9
(g67
g11
NtRp2226
(dp2227
g17
Nsg18
(g9
(g55
g11
NtRp2228
(dp2229
g14
(lp2230
sg59
S'RKneePitch'
p2231
sg17
Nsg18
(tsg28
g1087
sg63
I01
sg16
I-3403628589140024565
sbtp2232
sg14
(lp2233
sg28
g1147
sg16
I-3871462797041237265
sbtp2234
sg28
g78
sg63
I01
sbg9
(g19
g11
NtRp2235
(dp2236
g14
(lp2237
sg16
I4620859964923436778
sg17
Nsg18
(g9
(g23
g11
NtRp2238
((I1
S'cdccccccccccdL'
I-45
I52
t(dp2239
g26
I53
sg14
(lp2240
sg16
I6674920830780898407
sg17
Nsg18
(tsg28
(dp2241
g41
I01
sg42
I00
sg43
I01
sg44
I00
sg30
I01
sg45
I00
sg31
I00
sg38
I01
sg32
I00
sg46
I01
sg47
I00
sg48
I00
sg33
I00
sg34
I01
sg35
I01
sg49
I00
sg37
I01
sg39
I01
sg50
I00
sg51
I00
sg36
I00
sg40
I01
sstbg9
(g10
g11
NtRp2242
(dp2243
g14
(lp2244
sg16
I843594886869284749
sg17
Nsg18
(g9
(g19
g11
NtRp2245
(dp2246
g14
(lp2247
sg16
I-3427539732264737009
sg17
Nsg18
(g9
(g23
g11
NtRp2248
((I0
S'1L'
I0
I1
t(dp2249
g26
I53
sg14
(lp2250
sg16
I-8838321674194594742
sg17
Nsg18
(tsg28
(dp2251
g41
I01
sg42
I00
sg43
I01
sg44
I00
sg171
I00
sg45
I00
sg31
I00
sg38
I00
sg32
I00
sg46
I01
sg47
I00
sg48
I00
sg33
I00
sg34
I01
sg35
I01
sg49
I00
sg37
I01
sg39
I01
sg174
I01
sg51
I00
sg278
I01
sg40
I01
sstbg2049
g2155
tp2252
sg28
g78
sg63
I01
sbg9
(g19
g11
NtRp2253
(dp2254
g14
(lp2255
sg16
I1564164667061751117
sg17
Nsg18
(g9
(g23
g11
NtRp2256
((I0
S'1L'
I0
I1
t(dp2257
g26
I53
sg14
(lp2258
sg16
I-8838321674194594742
sg17
Nsg18
(tsg28
(dp2259
g41
I01
sg42
I00
sg43
I01
sg44
I00
sg171
I00
sg45
I00
sg31
I00
sg38
I00
sg32
I00
sg46
I01
sg47
I00
sg48
I00
sg33
I00
sg34
I01
sg35
I01
sg49
I00
sg37
I01
sg39
I01
sg174
I01
sg51
I00
sg278
I01
sg40
I01
sstbg2192
g2180
tp2260
sg28
g78
sg63
I01
sbtp2261
sg28
g285
sg63
I01
sbg9
(g52
g11
NtRp2262
(dp2263
g17
Nsg18
(g2228
tp2264
sg14
(lp2265
sg28
g1090
sg16
I923061065219270732
sbtp2266
sg28
g78
sg63
I01
sbg9
(g19
g11
NtRp2267
(dp2268
g14
(lp2269
sg16
I5887565165076979804
sg17
Nsg18
(g9
(g23
g11
NtRp2270
((I1
S'19L'
I2
I5
t(dp2271
g26
I53
sg14
(lp2272
sg16
I-2346872259468522873
sg17
Nsg18
(tsg28
(dp2273
g41
I01
sg42
I00
sg43
I01
sg44
I00
sg30
I01
sg45
I00
sg31
I00
sg38
I01
sg32
I00
sg46
I01
sg47
I00
sg48
I00
sg33
I00
sg34
I01
sg35
I01
sg49
I00
sg37
I01
sg39
I01
sg50
I00
sg51
I00
sg36
I00
sg40
I01
sstbg2192
g2180
tp2274
sg28
g78
sg63
I01
sbtp2275
sg28
g285
sg63
I01
sbag9
(g10
g11
NtRp2276
(dp2277
g14
(lp2278
sg16
I-5241880201031921687
sg17
Nsg18
(g9
(g19
g11
NtRp2279
(dp2280
g14
(lp2281
sg16
I-1832670227302835898
sg17
Nsg18
(g9
(g23
g11
NtRp2282
((I1
S'cdccccccccccdL'
I-45
I52
t(dp2283
g26
I53
sg14
(lp2284
sg16
I6674920830780898407
sg17
Nsg18
(tsg28
(dp2285
g41
I01
sg42
I00
sg43
I01
sg44
I00
sg30
I01
sg45
I00
sg31
I00
sg38
I01
sg32
I00
sg46
I01
sg47
I00
sg48
I00
sg33
I00
sg34
I01
sg35
I01
sg49
I00
sg37
I01
sg39
I01
sg50
I00
sg51
I00
sg36
I00
sg40
I01
sstbg9
(g10
g11
NtRp2286
(dp2287
g14
(lp2288
sg16
I-3686530624551163538
sg17
Nsg18
(g9
(g19
g11
NtRp2289
(dp2290
g14
(lp2291
sg16
I7110627252334139350
sg17
Nsg18
(g9
(g23
g11
NtRp2292
((I1
S'1L'
I0
I1
t(dp2293
g26
I53
sg14
(lp2294
sg16
I1652741725224645181
sg17
Nsg18
(tsg28
(dp2295
g41
I01
sg42
I00
sg43
I01
sg44
I00
sg30
I01
sg45
I00
sg31
I00
sg38
I01
sg32
I00
sg46
I01
sg47
I00
sg48
I00
sg33
I00
sg34
I01
sg35
I01
sg49
I00
sg37
I01
sg39
I01
sg50
I00
sg51
I00
sg36
I00
sg40
I01
sstbg9
(g10
g11
NtRp2296
(dp2297
g14
(lp2298
sg16
I4749417586901784001
sg17
Nsg18
(g9
(g19
g11
NtRp2299
(dp2300
g14
(lp2301
sg16
I3781381934268175984
sg17
Nsg18
(g9
(g23
g11
NtRp2302
((I1
S'1L'
I0
I1
t(dp2303
g26
I53
sg14
(lp2304
sg16
I1652741725224645181
sg17
Nsg18
(tsg28
(dp2305
g41
I01
sg42
I00
sg43
I01
sg44
I00
sg30
I01
sg45
I00
sg31
I00
sg38
I01
sg32
I00
sg46
I01
sg47
I00
sg48
I00
sg33
I00
sg34
I01
sg35
I01
sg49
I00
sg37
I01
sg39
I01
sg50
I00
sg51
I00
sg36
I00
sg40
I01
sstbg9
(g10
g11
NtRp2306
(dp2307
g14
(lp2308
sg16
I-3877060079813715889
sg17
Nsg18
(g9
(g19
g11
NtRp2309
(dp2310
g14
(lp2311
sg16
I-8654448506291335678
sg17
Nsg18
(g9
(g23
g11
NtRp2312
((I0
S'1L'
I0
I1
t(dp2313
g26
I53
sg14
(lp2314
sg16
I-8838321674194594742
sg17
Nsg18
(tsg28
(dp2315
g41
I01
sg42
I00
sg43
I01
sg44
I00
sg171
I00
sg45
I00
sg31
I00
sg38
I00
sg32
I00
sg46
I01
sg47
I00
sg48
I00
sg33
I00
sg34
I01
sg35
I01
sg49
I00
sg37
I01
sg39
I01
sg174
I01
sg51
I00
sg278
I01
sg40
I01
sstbg1234
g2069
tp2316
sg28
g78
sg63
I01
sbg9
(g19
g11
NtRp2317
(dp2318
g14
(lp2319
sg16
I-3125683381035125200
sg17
Nsg18
(g9
(g23
g11
NtRp2320
((I1
S'1L'
I0
I1
t(dp2321
g26
I53
sg14
(lp2322
sg16
I1652741725224645181
sg17
Nsg18
(tsg28
(dp2323
g41
I01
sg42
I00
sg43
I01
sg44
I00
sg30
I01
sg45
I00
sg31
I00
sg38
I01
sg32
I00
sg46
I01
sg47
I00
sg48
I00
sg33
I00
sg34
I01
sg35
I01
sg49
I00
sg37
I01
sg39
I01
sg50
I00
sg51
I00
sg36
I00
sg40
I01
sstbg1347
g2094
tp2324
sg28
g78
sg63
I01
sbtp2325
sg28
g285
sg63
I01
sbg2100
tp2326
sg28
g78
sg63
I01
sbg9
(g19
g11
NtRp2327
(dp2328
g14
(lp2329
sg16
I6040183222898923908
sg17
Nsg18
(g9
(g23
g11
NtRp2330
((I0
S'1L'
I0
I1
t(dp2331
g26
I53
sg14
(lp2332
sg16
I-8838321674194594742
sg17
Nsg18
(tsg28
(dp2333
g41
I01
sg42
I00
sg43
I01
sg44
I00
sg171
I00
sg45
I00
sg31
I00
sg38
I00
sg32
I00
sg46
I01
sg47
I00
sg48
I00
sg33
I00
sg34
I01
sg35
I01
sg49
I00
sg37
I01
sg39
I01
sg174
I01
sg51
I00
sg278
I01
sg40
I01
sstbg9
(g10
g11
NtRp2334
(dp2335
g14
(lp2336
sg16
I-647674349487948033
sg17
Nsg18
(g9
(g19
g11
NtRp2337
(dp2338
g14
(lp2339
sg16
I3406080397679851070
sg17
Nsg18
(g9
(g23
g11
NtRp2340
((I0
S'1L'
I0
I1
t(dp2341
g26
I53
sg14
(lp2342
sg16
I-8838321674194594742
sg17
Nsg18
(tsg28
(dp2343
g41
I01
sg42
I00
sg43
I01
sg44
I00
sg171
I00
sg45
I00
sg31
I00
sg38
I00
sg32
I00
sg46
I01
sg47
I00
sg48
I00
sg33
I00
sg34
I01
sg35
I01
sg49
I00
sg37
I01
sg39
I01
sg174
I01
sg51
I00
sg278
I01
sg40
I01
sstbg2134
g1234
tp2344
sg28
g78
sg63
I01
sbg9
(g19
g11
NtRp2345
(dp2346
g14
(lp2347
sg16
I4686617735389951736
sg17
Nsg18
(g9
(g23
g11
NtRp2348
((I0
S'1L'
I0
I1
t(dp2349
g26
I53
sg14
(lp2350
sg16
I-8838321674194594742
sg17
Nsg18
(tsg28
(dp2351
g41
I01
sg42
I00
sg43
I01
sg44
I00
sg171
I00
sg45
I00
sg31
I00
sg38
I00
sg32
I00
sg46
I01
sg47
I00
sg48
I00
sg33
I00
sg34
I01
sg35
I01
sg49
I00
sg37
I01
sg39
I01
sg174
I01
sg51
I00
sg278
I01
sg40
I01
sstbg1347
g2069
g2094
tp2352
sg28
g78
sg63
I01
sbg9
(g19
g11
NtRp2353
(dp2354
g14
(lp2355
sg16
I5869106879354388228
sg17
Nsg18
(g9
(g23
g11
NtRp2356
((I0
S'1L'
I0
I1
t(dp2357
g26
I53
sg14
(lp2358
sg16
I-8838321674194594742
sg17
Nsg18
(tsg28
(dp2359
g41
I01
sg42
I00
sg43
I01
sg44
I00
sg171
I00
sg45
I00
sg31
I00
sg38
I00
sg32
I00
sg46
I01
sg47
I00
sg48
I00
sg33
I00
sg34
I01
sg35
I01
sg49
I00
sg37
I01
sg39
I01
sg174
I01
sg51
I00
sg278
I01
sg40
I01
sstbg1277
g2069
tp2360
sg28
g78
sg63
I01
sbtp2361
sg28
g285
sg63
I01
sbg2149
tp2362
sg28
g78
sg63
I01
sbtp2363
sg28
g285
sg63
I01
sbg2180
tp2364
sg28
g78
sg63
I01
sbg9
(g19
g11
NtRp2365
(dp2366
g14
(lp2367
sg16
I7386565759831932499
sg17
Nsg18
(g9
(g23
g11
NtRp2368
((I0
S'1L'
I0
I1
t(dp2369
g26
I53
sg14
(lp2370
sg16
I-8838321674194594742
sg17
Nsg18
(tsg28
(dp2371
g41
I01
sg42
I00
sg43
I01
sg44
I00
sg171
I00
sg45
I00
sg31
I00
sg38
I00
sg32
I00
sg46
I01
sg47
I00
sg48
I00
sg33
I00
sg34
I01
sg35
I01
sg49
I00
sg37
I01
sg39
I01
sg174
I01
sg51
I00
sg278
I01
sg40
I01
sstbg9
(g10
g11
NtRp2372
(dp2373
g14
(lp2374
sg16
I-7152305093445516428
sg17
Nsg18
(g9
(g19
g11
NtRp2375
(dp2376
g14
(lp2377
sg16
I4265407258059869328
sg17
Nsg18
(g9
(g23
g11
NtRp2378
((I1
S'1L'
I0
I1
t(dp2379
g26
I53
sg14
(lp2380
sg16
I1652741725224645181
sg17
Nsg18
(tsg28
(dp2381
g41
I01
sg42
I00
sg43
I01
sg44
I00
sg30
I01
sg45
I00
sg31
I00
sg38
I01
sg32
I00
sg46
I01
sg47
I00
sg48
I00
sg33
I00
sg34
I01
sg35
I01
sg49
I00
sg37
I01
sg39
I01
sg50
I00
sg51
I00
sg36
I00
sg40
I01
sstbg1277
g2094
tp2382
sg28
g78
sg63
I01
sbg9
(g19
g11
NtRp2383
(dp2384
g14
(lp2385
sg16
I4388810318459784899
sg17
Nsg18
(g9
(g23
g11
NtRp2386
((I0
S'1L'
I0
I1
t(dp2387
g26
I53
sg14
(lp2388
sg16
I-8838321674194594742
sg17
Nsg18
(tsg28
(dp2389
g41
I01
sg42
I00
sg43
I01
sg44
I00
sg171
I00
sg45
I00
sg31
I00
sg38
I00
sg32
I00
sg46
I01
sg47
I00
sg48
I00
sg33
I00
sg34
I01
sg35
I01
sg49
I00
sg37
I01
sg39
I01
sg174
I01
sg51
I00
sg278
I01
sg40
I01
sstbg2218
g1347
tp2390
sg28
g78
sg63
I01
sbg9
(g19
g11
NtRp2391
(dp2392
g14
(lp2393
sg16
I4949419022688465622
sg17
Nsg18
(g9
(g23
g11
NtRp2394
((I0
S'1L'
I0
I1
t(dp2395
g26
I53
sg14
(lp2396
sg16
I-8838321674194594742
sg17
Nsg18
(tsg28
(dp2397
g41
I01
sg42
I00
sg43
I01
sg44
I00
sg171
I00
sg45
I00
sg31
I00
sg38
I00
sg32
I00
sg46
I01
sg47
I00
sg48
I00
sg33
I00
sg34
I01
sg35
I01
sg49
I00
sg37
I01
sg39
I01
sg174
I01
sg51
I00
sg278
I01
sg40
I01
sstbg1234
g2069
g2094
tp2398
sg28
g78
sg63
I01
sbtp2399
sg28
g285
sg63
I01
sbg2155
tp2400
sg28
g78
sg63
I01
sbtp2401
sg28
g285
sg63
I01
sbg2226
tp2402
sg28
g78
sg63
I01
sbg9
(g19
g11
NtRp2403
(dp2404
g14
(lp2405
sg16
I-828627904193422321
sg17
Nsg18
(g1388
g116
g53
g313
tp2406
sg28
g78
sg63
I01
sbg9
(g19
g11
NtRp2407
(dp2408
g14
(lp2409
sg16
I-827462116553907148
sg17
Nsg18
(g9
(g23
g11
NtRp2410
((I1
S'cdccccccccccdL'
I-45
I52
t(dp2411
g26
I53
sg14
(lp2412
sg16
I6674920830780898407
sg17
Nsg18
(tsg28
(dp2413
g41
I01
sg42
I00
sg43
I01
sg44
I00
sg30
I01
sg45
I00
sg31
I00
sg38
I01
sg32
I00
sg46
I01
sg47
I00
sg48
I00
sg33
I00
sg34
I01
sg35
I01
sg49
I00
sg37
I01
sg39
I01
sg50
I00
sg51
I00
sg36
I00
sg40
I01
sstbg9
(g10
g11
NtRp2414
(dp2415
g14
(lp2416
sg16
I5035383102649838107
sg17
Nsg18
(g9
(g19
g11
NtRp2417
(dp2418
g14
(lp2419
sg16
I-2136363725226566966
sg17
Nsg18
(g9
(g23
g11
NtRp2420
((I0
S'1L'
I0
I1
t(dp2421
g26
I53
sg14
(lp2422
sg16
I-8838321674194594742
sg17
Nsg18
(tsg28
(dp2423
g41
I01
sg42
I00
sg43
I01
sg44
I00
sg171
I00
sg45
I00
sg31
I00
sg38
I00
sg32
I00
sg46
I01
sg47
I00
sg48
I00
sg33
I00
sg34
I01
sg35
I01
sg49
I00
sg37
I01
sg39
I01
sg174
I01
sg51
I00
sg278
I01
sg40
I01
sstbg2296
g2155
tp2424
sg28
g78
sg63
I01
sbg9
(g19
g11
NtRp2425
(dp2426
g14
(lp2427
sg16
I-1738587930411030996
sg17
Nsg18
(g9
(g23
g11
NtRp2428
((I0
S'1L'
I0
I1
t(dp2429
g26
I53
sg14
(lp2430
sg16
I-8838321674194594742
sg17
Nsg18
(tsg28
(dp2431
g41
I01
sg42
I00
sg43
I01
sg44
I00
sg171
I00
sg45
I00
sg31
I00
sg38
I00
sg32
I00
sg46
I01
sg47
I00
sg48
I00
sg33
I00
sg34
I01
sg35
I01
sg49
I00
sg37
I01
sg39
I01
sg174
I01
sg51
I00
sg278
I01
sg40
I01
sstbg2372
g2180
tp2432
sg28
g78
sg63
I01
sbtp2433
sg28
g285
sg63
I01
sbg2262
tp2434
sg28
g78
sg63
I01
sbg9
(g19
g11
NtRp2435
(dp2436
g14
(lp2437
sg16
I3179208869680003355
sg17
Nsg18
(g1395
g116
g313
tp2438
sg28
g78
sg63
I01
sbg9
(g19
g11
NtRp2439
(dp2440
g14
(lp2441
sg16
I4095490653871073430
sg17
Nsg18
(g1402
g68
g313
g104
tp2442
sg28
g78
sg63
I01
sbg9
(g19
g11
NtRp2443
(dp2444
g14
(lp2445
sg16
I4545619125039190731
sg17
Nsg18
(g9
(g23
g11
NtRp2446
((I1
S'19L'
I2
I5
t(dp2447
g26
I53
sg14
(lp2448
sg16
I-2346872259468522873
sg17
Nsg18
(tsg28
(dp2449
g41
I01
sg42
I00
sg43
I01
sg44
I00
sg30
I01
sg45
I00
sg31
I00
sg38
I01
sg32
I00
sg46
I01
sg47
I00
sg48
I00
sg33
I00
sg34
I01
sg35
I01
sg49
I00
sg37
I01
sg39
I01
sg50
I00
sg51
I00
sg36
I00
sg40
I01
sstbg2296
g2155
tp2450
sg28
g78
sg63
I01
sbg9
(g19
g11
NtRp2451
(dp2452
g14
(lp2453
sg16
I6107688169049442264
sg17
Nsg18
(g9
(g23
g11
NtRp2454
((I1
S'19L'
I2
I5
t(dp2455
g26
I53
sg14
(lp2456
sg16
I-2346872259468522873
sg17
Nsg18
(tsg28
(dp2457
g41
I01
sg42
I00
sg43
I01
sg44
I00
sg30
I01
sg45
I00
sg31
I00
sg38
I01
sg32
I00
sg46
I01
sg47
I00
sg48
I00
sg33
I00
sg34
I01
sg35
I01
sg49
I00
sg37
I01
sg39
I01
sg50
I00
sg51
I00
sg36
I00
sg40
I01
sstbg782
g184
tp2458
sg28
g78
sg63
I01
sbg9
(g19
g11
NtRp2459
(dp2460
g14
(lp2461
sg16
I6398098343146629149
sg17
Nsg18
(g9
(g23
g11
NtRp2462
((I1
S'19L'
I2
I5
t(dp2463
g26
I53
sg14
(lp2464
sg16
I-2346872259468522873
sg17
Nsg18
(tsg28
(dp2465
g41
I01
sg42
I00
sg43
I01
sg44
I00
sg30
I01
sg45
I00
sg31
I00
sg38
I01
sg32
I00
sg46
I01
sg47
I00
sg48
I00
sg33
I00
sg34
I01
sg35
I01
sg49
I00
sg37
I01
sg39
I01
sg50
I00
sg51
I00
sg36
I00
sg40
I01
sstbg2372
g2180
tp2466
sg28
g78
sg63
I01
sbg9
(g19
g11
NtRp2467
(dp2468
g14
(lp2469
sg16
I8211457612239154898
sg17
Nsg18
(g9
(g23
g11
NtRp2470
((I1
S'19L'
I2
I5
t(dp2471
g26
I53
sg14
(lp2472
sg16
I-2346872259468522873
sg17
Nsg18
(tsg28
(dp2473
g41
I01
sg42
I00
sg43
I01
sg44
I00
sg30
I01
sg45
I00
sg31
I00
sg38
I01
sg32
I00
sg46
I01
sg47
I00
sg48
I00
sg33
I00
sg34
I01
sg35
I01
sg49
I00
sg37
I01
sg39
I01
sg50
I00
sg51
I00
sg36
I00
sg40
I01
sstbg843
g162
tp2474
sg28
g78
sg63
I01
sbtp2475
sg28
g285
sg63
I01
sbag9
(g10
g11
NtRp2476
(dp2477
g14
(lp2478
sg16
I5747983767918527384
sg17
Nsg18
(g9
(g19
g11
NtRp2479
(dp2480
g14
(lp2481
sg16
I-8985543879598943795
sg17
Nsg18
(g9
(g23
g11
NtRp2482
((I1
S'19L'
I2
I5
t(dp2483
g26
I53
sg14
(lp2484
sg16
I-2346872259468522873
sg17
Nsg18
(tsg28
(dp2485
g41
I01
sg42
I00
sg43
I01
sg44
I00
sg30
I01
sg45
I00
sg31
I00
sg38
I01
sg32
I00
sg46
I01
sg47
I00
sg48
I00
sg33
I00
sg34
I01
sg35
I01
sg49
I00
sg37
I01
sg39
I01
sg50
I00
sg51
I00
sg36
I00
sg40
I01
sstbg9
(g10
g11
NtRp2486
(dp2487
g14
(lp2488
sg16
I-4017729576433447313
sg17
Nsg18
(g9
(g19
g11
NtRp2489
(dp2490
g14
(lp2491
sg16
I-5210433825935655068
sg17
Nsg18
(g9
(g23
g11
NtRp2492
((I1
S'1L'
I0
I1
t(dp2493
g26
I53
sg14
(lp2494
sg16
I1652741725224645181
sg17
Nsg18
(tsg28
(dp2495
g41
I01
sg42
I00
sg43
I01
sg44
I00
sg30
I01
sg45
I00
sg31
I00
sg38
I01
sg32
I00
sg46
I01
sg47
I00
sg48
I00
sg33
I00
sg34
I01
sg35
I01
sg49
I00
sg37
I01
sg39
I01
sg50
I00
sg51
I00
sg36
I00
sg40
I01
sstbg9
(g10
g11
NtRp2496
(dp2497
g14
(lp2498
sg16
I1615113133926650859
sg17
Nsg18
(g9
(g19
g11
NtRp2499
(dp2500
g14
(lp2501
sg16
I-8178518231176727686
sg17
Nsg18
(g9
(g23
g11
NtRp2502
((I1
S'1L'
I0
I1
t(dp2503
g26
I53
sg14
(lp2504
sg16
I1652741725224645181
sg17
Nsg18
(tsg28
(dp2505
g41
I01
sg42
I00
sg43
I01
sg44
I00
sg30
I01
sg45
I00
sg31
I00
sg38
I01
sg32
I00
sg46
I01
sg47
I00
sg48
I00
sg33
I00
sg34
I01
sg35
I01
sg49
I00
sg37
I01
sg39
I01
sg50
I00
sg51
I00
sg36
I00
sg40
I01
sstbg1570
g2094
tp2506
sg28
g78
sg63
I01
sbg9
(g19
g11
NtRp2507
(dp2508
g14
(lp2509
sg16
I-3210823777811604788
sg17
Nsg18
(g9
(g23
g11
NtRp2510
((I0
S'1L'
I0
I1
t(dp2511
g26
I53
sg14
(lp2512
sg16
I-8838321674194594742
sg17
Nsg18
(tsg28
(dp2513
g41
I01
sg42
I00
sg43
I01
sg44
I00
sg171
I00
sg45
I00
sg31
I00
sg38
I00
sg32
I00
sg46
I01
sg47
I00
sg48
I00
sg33
I00
sg34
I01
sg35
I01
sg49
I00
sg37
I01
sg39
I01
sg174
I01
sg51
I00
sg278
I01
sg40
I01
sstbg1527
g2069
tp2514
sg28
g78
sg63
I01
sbtp2515
sg28
g285
sg63
I01
sbg2100
tp2516
sg28
g78
sg63
I01
sbg9
(g19
g11
NtRp2517
(dp2518
g14
(lp2519
sg16
I4969829550891441266
sg17
Nsg18
(g9
(g23
g11
NtRp2520
((I0
S'1L'
I0
I1
t(dp2521
g26
I53
sg14
(lp2522
sg16
I-8838321674194594742
sg17
Nsg18
(tsg28
(dp2523
g41
I01
sg42
I00
sg43
I01
sg44
I00
sg171
I00
sg45
I00
sg31
I00
sg38
I00
sg32
I00
sg46
I01
sg47
I00
sg48
I00
sg33
I00
sg34
I01
sg35
I01
sg49
I00
sg37
I01
sg39
I01
sg174
I01
sg51
I00
sg278
I01
sg40
I01
sstbg9
(g10
g11
NtRp2524
(dp2525
g14
(lp2526
sg16
I8691485915740504297
sg17
Nsg18
(g9
(g19
g11
NtRp2527
(dp2528
g14
(lp2529
sg16
I-1472785786491949490
sg17
Nsg18
(g9
(g23
g11
NtRp2530
((I0
S'1L'
I0
I1
t(dp2531
g26
I53
sg14
(lp2532
sg16
I-8838321674194594742
sg17
Nsg18
(tsg28
(dp2533
g41
I01
sg42
I00
sg43
I01
sg44
I00
sg171
I00
sg45
I00
sg31
I00
sg38
I00
sg32
I00
sg46
I01
sg47
I00
sg48
I00
sg33
I00
sg34
I01
sg35
I01
sg49
I00
sg37
I01
sg39
I01
sg174
I01
sg51
I00
sg278
I01
sg40
I01
sstbg1437
g2069
tp2534
sg28
g78
sg63
I01
sbg9
(g19
g11
NtRp2535
(dp2536
g14
(lp2537
sg16
I504095096517057346
sg17
Nsg18
(g9
(g23
g11
NtRp2538
((I0
S'1L'
I0
I1
t(dp2539
g26
I53
sg14
(lp2540
sg16
I-8838321674194594742
sg17
Nsg18
(tsg28
(dp2541
g41
I01
sg42
I00
sg43
I01
sg44
I00
sg171
I00
sg45
I00
sg31
I00
sg38
I00
sg32
I00
sg46
I01
sg47
I00
sg48
I00
sg33
I00
sg34
I01
sg35
I01
sg49
I00
sg37
I01
sg39
I01
sg174
I01
sg51
I00
sg278
I01
sg40
I01
sstbg1570
g2069
g2094
tp2542
sg28
g78
sg63
I01
sbg9
(g19
g11
NtRp2543
(dp2544
g14
(lp2545
sg16
I4208899692217497640
sg17
Nsg18
(g9
(g23
g11
NtRp2546
((I0
S'1L'
I0
I1
t(dp2547
g26
I53
sg14
(lp2548
sg16
I-8838321674194594742
sg17
Nsg18
(tsg28
(dp2549
g41
I01
sg42
I00
sg43
I01
sg44
I00
sg171
I00
sg45
I00
sg31
I00
sg38
I00
sg32
I00
sg46
I01
sg47
I00
sg48
I00
sg33
I00
sg34
I01
sg35
I01
sg49
I00
sg37
I01
sg39
I01
sg174
I01
sg51
I00
sg278
I01
sg40
I01
sstbg2134
g1527
tp2550
sg28
g78
sg63
I01
sbtp2551
sg28
g285
sg63
I01
sbg2149
tp2552
sg28
g78
sg63
I01
sbtp2553
sg28
g285
sg63
I01
sbg2155
tp2554
sg28
g78
sg63
I01
sbg9
(g19
g11
NtRp2555
(dp2556
g14
(lp2557
sg16
I-5481660358300881344
sg17
Nsg18
(g1503
g116
g381
tp2558
sg28
g78
sg63
I01
sbg9
(g19
g11
NtRp2559
(dp2560
g14
(lp2561
sg16
I-4699213883443200848
sg17
Nsg18
(g1510
g116
g381
g53
tp2562
sg28
g78
sg63
I01
sbg9
(g19
g11
NtRp2563
(dp2564
g14
(lp2565
sg16
I-4412362627400958188
sg17
Nsg18
(g9
(g23
g11
NtRp2566
((I1
S'19L'
I2
I5
t(dp2567
g26
I53
sg14
(lp2568
sg16
I-2346872259468522873
sg17
Nsg18
(tsg28
(dp2569
g41
I01
sg42
I00
sg43
I01
sg44
I00
sg30
I01
sg45
I00
sg31
I00
sg38
I01
sg32
I00
sg46
I01
sg47
I00
sg48
I00
sg33
I00
sg34
I01
sg35
I01
sg49
I00
sg37
I01
sg39
I01
sg50
I00
sg51
I00
sg36
I00
sg40
I01
sstbg904
g184
tp2570
sg28
g78
sg63
I01
sbg9
(g19
g11
NtRp2571
(dp2572
g14
(lp2573
sg16
I-2446068333782690672
sg17
Nsg18
(g9
(g23
g11
NtRp2574
((I1
S'cdccccccccccdL'
I-45
I52
t(dp2575
g26
I53
sg14
(lp2576
sg16
I6674920830780898407
sg17
Nsg18
(tsg28
(dp2577
g41
I01
sg42
I00
sg43
I01
sg44
I00
sg30
I01
sg45
I00
sg31
I00
sg38
I01
sg32
I00
sg46
I01
sg47
I00
sg48
I00
sg33
I00
sg34
I01
sg35
I01
sg49
I00
sg37
I01
sg39
I01
sg50
I00
sg51
I00
sg36
I00
sg40
I01
sstbg9
(g10
g11
NtRp2578
(dp2579
g14
(lp2580
sg16
I-571662859827677073
sg17
Nsg18
(g9
(g19
g11
NtRp2581
(dp2582
g14
(lp2583
sg16
I3187108244212508190
sg17
Nsg18
(g9
(g23
g11
NtRp2584
((I0
S'1L'
I0
I1
t(dp2585
g26
I53
sg14
(lp2586
sg16
I-8838321674194594742
sg17
Nsg18
(tsg28
(dp2587
g41
I01
sg42
I00
sg43
I01
sg44
I00
sg171
I00
sg45
I00
sg31
I00
sg38
I00
sg32
I00
sg46
I01
sg47
I00
sg48
I00
sg33
I00
sg34
I01
sg35
I01
sg49
I00
sg37
I01
sg39
I01
sg174
I01
sg51
I00
sg278
I01
sg40
I01
sstbg9
(g10
g11
NtRp2588
(dp2589
g14
(lp2590
sg16
I-2920611857195060658
sg17
Nsg18
(g9
(g19
g11
NtRp2591
(dp2592
g14
(lp2593
sg16
I-7214775536519719824
sg17
Nsg18
(g9
(g23
g11
NtRp2594
((I0
S'1L'
I0
I1
t(dp2595
g26
I53
sg14
(lp2596
sg16
I-8838321674194594742
sg17
Nsg18
(tsg28
(dp2597
g41
I01
sg42
I00
sg43
I01
sg44
I00
sg171
I00
sg45
I00
sg31
I00
sg38
I00
sg32
I00
sg46
I01
sg47
I00
sg48
I00
sg33
I00
sg34
I01
sg35
I01
sg49
I00
sg37
I01
sg39
I01
sg174
I01
sg51
I00
sg278
I01
sg40
I01
sstbg1527
g2069
g2094
tp2598
sg28
g78
sg63
I01
sbg9
(g19
g11
NtRp2599
(dp2600
g14
(lp2601
sg16
I-3270563952449506582
sg17
Nsg18
(g9
(g23
g11
NtRp2602
((I1
S'1L'
I0
I1
t(dp2603
g26
I53
sg14
(lp2604
sg16
I1652741725224645181
sg17
Nsg18
(tsg28
(dp2605
g41
I01
sg42
I00
sg43
I01
sg44
I00
sg30
I01
sg45
I00
sg31
I00
sg38
I01
sg32
I00
sg46
I01
sg47
I00
sg48
I00
sg33
I00
sg34
I01
sg35
I01
sg49
I00
sg37
I01
sg39
I01
sg50
I00
sg51
I00
sg36
I00
sg40
I01
sstbg1437
g2094
tp2606
sg28
g78
sg63
I01
sbg9
(g19
g11
NtRp2607
(dp2608
g14
(lp2609
sg16
I5031611782928052657
sg17
Nsg18
(g9
(g23
g11
NtRp2610
((I0
S'1L'
I0
I1
t(dp2611
g26
I53
sg14
(lp2612
sg16
I-8838321674194594742
sg17
Nsg18
(tsg28
(dp2613
g41
I01
sg42
I00
sg43
I01
sg44
I00
sg171
I00
sg45
I00
sg31
I00
sg38
I00
sg32
I00
sg46
I01
sg47
I00
sg48
I00
sg33
I00
sg34
I01
sg35
I01
sg49
I00
sg37
I01
sg39
I01
sg174
I01
sg51
I00
sg278
I01
sg40
I01
sstbg2218
g1570
tp2614
sg28
g78
sg63
I01
sbtp2615
sg28
g285
sg63
I01
sbg2180
tp2616
sg28
g78
sg63
I01
sbg9
(g19
g11
NtRp2617
(dp2618
g14
(lp2619
sg16
I7928712127036331892
sg17
Nsg18
(g9
(g23
g11
NtRp2620
((I0
S'1L'
I0
I1
t(dp2621
g26
I53
sg14
(lp2622
sg16
I-8838321674194594742
sg17
Nsg18
(tsg28
(dp2623
g41
I01
sg42
I00
sg43
I01
sg44
I00
sg171
I00
sg45
I00
sg31
I00
sg38
I00
sg32
I00
sg46
I01
sg47
I00
sg48
I00
sg33
I00
sg34
I01
sg35
I01
sg49
I00
sg37
I01
sg39
I01
sg174
I01
sg51
I00
sg278
I01
sg40
I01
sstbg2486
g2155
tp2624
sg28
g78
sg63
I01
sbtp2625
sg28
g285
sg63
I01
sbg2262
tp2626
sg28
g78
sg63
I01
sbg9
(g19
g11
NtRp2627
(dp2628
g14
(lp2629
sg16
I2433092481489119865
sg17
Nsg18
(g1604
g381
g68
g104
tp2630
sg28
g78
sg63
I01
sbg9
(g19
g11
NtRp2631
(dp2632
g14
(lp2633
sg16
I3021090195557101983
sg17
Nsg18
(g9
(g23
g11
NtRp2634
((I1
S'19L'
I2
I5
t(dp2635
g26
I53
sg14
(lp2636
sg16
I-2346872259468522873
sg17
Nsg18
(tsg28
(dp2637
g41
I01
sg42
I00
sg43
I01
sg44
I00
sg30
I01
sg45
I00
sg31
I00
sg38
I01
sg32
I00
sg46
I01
sg47
I00
sg48
I00
sg33
I00
sg34
I01
sg35
I01
sg49
I00
sg37
I01
sg39
I01
sg50
I00
sg51
I00
sg36
I00
sg40
I01
sstbg2588
g2180
tp2638
sg28
g78
sg63
I01
sbg9
(g19
g11
NtRp2639
(dp2640
g14
(lp2641
sg16
I3967024475221512980
sg17
Nsg18
(g9
(g23
g11
NtRp2642
((I1
S'cdccccccccccdL'
I-45
I52
t(dp2643
g26
I53
sg14
(lp2644
sg16
I6674920830780898407
sg17
Nsg18
(tsg28
(dp2645
g41
I01
sg42
I00
sg43
I01
sg44
I00
sg30
I01
sg45
I00
sg31
I00
sg38
I01
sg32
I00
sg46
I01
sg47
I00
sg48
I00
sg33
I00
sg34
I01
sg35
I01
sg49
I00
sg37
I01
sg39
I01
sg50
I00
sg51
I00
sg36
I00
sg40
I01
sstbg9
(g10
g11
NtRp2646
(dp2647
g14
(lp2648
sg16
I6247912228917979492
sg17
Nsg18
(g9
(g19
g11
NtRp2649
(dp2650
g14
(lp2651
sg16
I-4624876160092662111
sg17
Nsg18
(g9
(g23
g11
NtRp2652
((I0
S'1L'
I0
I1
t(dp2653
g26
I53
sg14
(lp2654
sg16
I-8838321674194594742
sg17
Nsg18
(tsg28
(dp2655
g41
I01
sg42
I00
sg43
I01
sg44
I00
sg171
I00
sg45
I00
sg31
I00
sg38
I00
sg32
I00
sg46
I01
sg47
I00
sg48
I00
sg33
I00
sg34
I01
sg35
I01
sg49
I00
sg37
I01
sg39
I01
sg174
I01
sg51
I00
sg278
I01
sg40
I01
sstbg2588
g2155
tp2656
sg28
g78
sg63
I01
sbg9
(g19
g11
NtRp2657
(dp2658
g14
(lp2659
sg16
I2089133030607601584
sg17
Nsg18
(g9
(g23
g11
NtRp2660
((I1
S'1L'
I0
I1
t(dp2661
g26
I53
sg14
(lp2662
sg16
I1652741725224645181
sg17
Nsg18
(tsg28
(dp2663
g41
I01
sg42
I00
sg43
I01
sg44
I00
sg30
I01
sg45
I00
sg31
I00
sg38
I01
sg32
I00
sg46
I01
sg47
I00
sg48
I00
sg33
I00
sg34
I01
sg35
I01
sg49
I00
sg37
I01
sg39
I01
sg50
I00
sg51
I00
sg36
I00
sg40
I01
sstbg2486
g2180
tp2664
sg28
g78
sg63
I01
sbtp2665
sg28
g285
sg63
I01
sbg2226
tp2666
sg28
g78
sg63
I01
sbg9
(g19
g11
NtRp2667
(dp2668
g14
(lp2669
sg16
I4796684989092749028
sg17
Nsg18
(g9
(g23
g11
NtRp2670
((I1
S'19L'
I2
I5
t(dp2671
g26
I53
sg14
(lp2672
sg16
I-2346872259468522873
sg17
Nsg18
(tsg28
(dp2673
g41
I01
sg42
I00
sg43
I01
sg44
I00
sg30
I01
sg45
I00
sg31
I00
sg38
I01
sg32
I00
sg46
I01
sg47
I00
sg48
I00
sg33
I00
sg34
I01
sg35
I01
sg49
I00
sg37
I01
sg39
I01
sg50
I00
sg51
I00
sg36
I00
sg40
I01
sstbg972
g162
tp2674
sg28
g78
sg63
I01
sbtp2675
sg28
g285
sg63
I01
sbag9
(g23
g11
NtRp2676
((I0
S'1L'
I0
I1
t(dp2677
g26
I53
sg14
(lp2678
sg16
Nsg17
Nsg18
(tsg28
g643
stbatbsS'LShoulderRoll'
p2679
g3
(g4
(I0
tS'b'
tRp2680
(I1
(I4
I1
tg7
I00
(lp2681
g1816
ag1870
ag1930
ag9
(g23
g11
NtRp2682
((I0
S'1L'
I0
I1
t(dp2683
g26
I53
sg14
(lp2684
sg16
Nsg17
Nsg18
(tsg28
g643
stbatbsg128
g3
(g4
(I0
tS'b'
tRp2685
(I1
(I4
I1
tg7
I00
(lp2686
g9
(g10
g11
NtRp2687
(dp2688
g14
(lp2689
sg16
I5850298974483840550
sg17
Nsg18
(g9
(g19
g11
NtRp2690
(dp2691
g14
(lp2692
sg16
I-5662339764514342027
sg17
Nsg18
(g9
(g23
g11
NtRp2693
((I1
S'19L'
I2
I5
t(dp2694
g26
I53
sg14
(lp2695
sg16
I-2346872259468522873
sg17
Nsg18
(tsg28
g643
stbg53
g68
tp2696
sg28
g78
sg63
I01
sbg196
g9
(g19
g11
NtRp2697
(dp2698
g14
(lp2699
sg16
I588049676907542869
sg17
Nsg18
(g9
(g23
g11
NtRp2700
((I1
S'19L'
I2
I5
t(dp2701
g26
I53
sg14
(lp2702
sg16
I-2346872259468522873
sg17
Nsg18
(tsg28
g643
stbg116
g104
tp2703
sg28
g78
sg63
I01
sbtp2704
sg28
g285
sg63
I01
sbag9
(g10
g11
NtRp2705
(dp2706
g14
(lp2707
sg16
I-1722573408155215577
sg17
Nsg18
(g9
(g19
g11
NtRp2708
(dp2709
g14
(lp2710
sg16
I-828627904193422321
sg17
Nsg18
(g9
(g23
g11
NtRp2711
((I0
S'19L'
I2
I5
t(dp2712
g26
I53
sg14
(lp2713
sg16
I-3718610978853045224
sg17
Nsg18
(tsg28
g643
stbg116
g53
g313
tp2714
sg28
g78
sg63
I01
sbg9
(g19
g11
NtRp2715
(dp2716
g14
(lp2717
sg16
I3179208869680003355
sg17
Nsg18
(g9
(g23
g11
NtRp2718
((I0
S'cdccccccccccdL'
I-45
I52
t(dp2719
g26
I53
sg14
(lp2720
sg16
I-2031544583562847888
sg17
Nsg18
(tsg28
g643
stbg116
g313
tp2721
sg28
g78
sg63
I01
sbg9
(g19
g11
NtRp2722
(dp2723
g14
(lp2724
sg16
I4095490653871073430
sg17
Nsg18
(g9
(g23
g11
NtRp2725
((I1
S'19L'
I2
I5
t(dp2726
g26
I53
sg14
(lp2727
sg16
I-2346872259468522873
sg17
Nsg18
(tsg28
g643
stbg68
g313
g104
tp2728
sg28
g78
sg63
I01
sbtp2729
sg28
g285
sg63
I01
sbag9
(g10
g11
NtRp2730
(dp2731
g14
(lp2732
sg16
I94286516633442676
sg17
Nsg18
(g9
(g19
g11
NtRp2733
(dp2734
g14
(lp2735
sg16
I-5481660358300881344
sg17
Nsg18
(g9
(g23
g11
NtRp2736
((I0
S'cdccccccccccdL'
I-45
I52
t(dp2737
g26
I53
sg14
(lp2738
sg16
I-2031544583562847888
sg17
Nsg18
(tsg28
g643
stbg116
g381
tp2739
sg28
g78
sg63
I01
sbg9
(g19
g11
NtRp2740
(dp2741
g14
(lp2742
sg16
I-4699213883443200848
sg17
Nsg18
(g9
(g23
g11
NtRp2743
((I0
S'19L'
I2
I5
t(dp2744
g26
I53
sg14
(lp2745
sg16
I-3718610978853045224
sg17
Nsg18
(tsg28
g643
stbg116
g381
g53
tp2746
sg28
g78
sg63
I01
sbg9
(g19
g11
NtRp2747
(dp2748
g14
(lp2749
sg16
I2433092481489119865
sg17
Nsg18
(g9
(g23
g11
NtRp2750
((I1
S'19L'
I2
I5
t(dp2751
g26
I53
sg14
(lp2752
sg16
I-2346872259468522873
sg17
Nsg18
(tsg28
g643
stbg381
g68
g104
tp2753
sg28
g78
sg63
I01
sbtp2754
sg28
g285
sg63
I01
sbag9
(g23
g11
NtRp2755
((I0
S'1L'
I0
I1
t(dp2756
g26
I53
sg14
(lp2757
sg16
Nsg17
Nsg18
(tsg28
g643
stbatbsS'LElbowYaw'
p2758
g3
(g4
(I0
tS'b'
tRp2759
(I1
(I4
I1
tg7
I00
(lp2760
g9
(g10
g11
NtRp2761
(dp2762
g14
(lp2763
sg16
I-6625171389842703804
sg17
Nsg18
(g9
(g19
g11
NtRp2764
(dp2765
g14
(lp2766
sg16
I-5662339764514342027
sg17
Nsg18
(g1022
g53
g68
tp2767
sg28
g78
sg63
I01
sbg9
(g19
g11
NtRp2768
(dp2769
g14
(lp2770
sg16
I-1784087611993409719
sg17
Nsg18
(g9
(g23
g11
NtRp2771
((I1
S'3L'
I4
I2
t(dp2772
g26
I53
sg14
(lp2773
sg16
I2669681814860609964
sg17
Nsg18
(tsg28
(dp2774
g41
I01
sg42
I00
sg43
I01
sg44
I00
sg30
I01
sg45
I00
sg31
I00
sg38
I01
sg32
I00
sg46
I01
sg47
I00
sg48
I00
sg33
I00
sg34
I01
sg35
I01
sg49
I00
sg37
I01
sg39
I01
sg50
I00
sg51
I00
sg36
I00
sg40
I01
sstbg218
g162
g236
tp2775
sg28
g78
sg63
I01
sbg9
(g19
g11
NtRp2776
(dp2777
g14
(lp2778
sg16
I-607848979730707792
sg17
Nsg18
(g9
(g23
g11
NtRp2779
((I0
S'3L'
I4
I2
t(dp2780
g26
I53
sg14
(lp2781
sg16
I8290848331410560139
sg17
Nsg18
(tsg28
(dp2782
g41
I01
sg42
I00
sg43
I01
sg44
I00
sg171
I00
sg45
I00
sg31
I00
sg38
I00
sg32
I00
sg46
I01
sg47
I00
sg48
I00
sg33
I00
sg34
I01
sg35
I01
sg49
I00
sg37
I01
sg39
I01
sg174
I01
sg51
I00
sg278
I01
sg40
I01
sstbg86
g184
tp2783
sg28
g78
sg63
I01
sbg9
(g19
g11
NtRp2784
(dp2785
g14
(lp2786
sg16
I-456385748557284473
sg17
Nsg18
(g1043
g218
g279
g162
tp2787
sg28
g78
sg63
I01
sbg9
(g19
g11
NtRp2788
(dp2789
g14
(lp2790
sg16
I-326962619948721905
sg17
Nsg18
(g9
(g23
g11
NtRp2791
((I0
S'fL'
I0
I4
t(dp2792
g26
I53
sg14
(lp2793
sg16
I-2502376452925460751
sg17
Nsg18
(tsg28
(dp2794
g41
I01
sg42
I00
sg43
I01
sg44
I00
sg171
I00
sg45
I00
sg31
I00
sg38
I00
sg32
I00
sg46
I01
sg47
I00
sg48
I00
sg33
I00
sg34
I01
sg35
I01
sg49
I00
sg37
I01
sg39
I01
sg174
I01
sg51
I00
sg278
I01
sg40
I01
sstbg9
(g10
g11
NtRp2795
(dp2796
g14
(lp2797
sg16
I-8214316787811798156
sg17
Nsg18
(g9
(g19
g11
NtRp2798
(dp2799
g14
(lp2800
sg16
I-9093347277194078242
sg17
Nsg18
(g9
(g23
g11
NtRp2801
((I0
S'1L'
I0
I1
t(dp2802
g26
I53
sg14
(lp2803
sg16
I-8838321674194594742
sg17
Nsg18
(tsg28
(dp2804
g41
I01
sg42
I00
sg43
I01
sg44
I00
sg171
I00
sg45
I00
sg31
I00
sg38
I00
sg32
I00
sg46
I01
sg47
I00
sg48
I00
sg33
I00
sg34
I01
sg35
I01
sg49
I00
sg37
I01
sg39
I01
sg174
I01
sg51
I00
sg278
I01
sg40
I01
sstbg1107
g9
(g67
g11
NtRp2805
(dp2806
g17
Nsg18
(g9
(g55
g11
NtRp2807
(dp2808
g14
(lp2809
sg59
g1813
sg17
Nsg18
(tsg28
g1087
sg63
I01
sg16
I7715222874941473404
sbtp2810
sg14
(lp2811
sg28
g1147
sg16
I8135503398396216834
sbtp2812
sg28
g78
sg63
I01
sbg9
(g19
g11
NtRp2813
(dp2814
g14
(lp2815
sg16
I-3059323452665543391
sg17
Nsg18
(g9
(g23
g11
NtRp2816
((I0
S'1L'
I0
I1
t(dp2817
g26
I53
sg14
(lp2818
sg16
I-8838321674194594742
sg17
Nsg18
(tsg28
(dp2819
g41
I01
sg42
I00
sg43
I01
sg44
I00
sg171
I00
sg45
I00
sg31
I00
sg38
I00
sg32
I00
sg46
I01
sg47
I00
sg48
I00
sg33
I00
sg34
I01
sg35
I01
sg49
I00
sg37
I01
sg39
I01
sg174
I01
sg51
I00
sg278
I01
sg40
I01
sstbg1155
g9
(g52
g11
NtRp2820
(dp2821
g17
Nsg18
(g2807
tp2822
sg14
(lp2823
sg28
g1090
sg16
I3163711631895270309
sbtp2824
sg28
g78
sg63
I01
sbtp2825
sg28
g285
sg63
I01
sbg9
(g67
g11
NtRp2826
(dp2827
g17
Nsg18
(g9
(g55
g11
NtRp2828
(dp2829
g14
(lp2830
sg59
g2679
sg17
Nsg18
(tsg28
g1087
sg63
I01
sg16
I5418325287043562236
sbtp2831
sg14
(lp2832
sg28
g1147
sg16
I501360263167639426
sbtp2833
sg28
g78
sg63
I01
sbg196
g9
(g19
g11
NtRp2834
(dp2835
g14
(lp2836
sg16
I588049676907542869
sg17
Nsg18
(g1051
g116
g104
tp2837
sg28
g78
sg63
I01
sbg9
(g19
g11
NtRp2838
(dp2839
g14
(lp2840
sg16
I2268210079921591195
sg17
Nsg18
(g9
(g23
g11
NtRp2841
((I0
S'69L'
I0
I7
t(dp2842
g26
I53
sg14
(lp2843
sg16
I2601078411346328320
sg17
Nsg18
(tsg28
(dp2844
g41
I01
sg42
I00
sg43
I01
sg44
I00
sg171
I00
sg45
I00
sg31
I00
sg38
I00
sg32
I00
sg46
I01
sg47
I00
sg48
I00
sg33
I00
sg34
I01
sg35
I01
sg49
I00
sg37
I01
sg39
I01
sg174
I01
sg51
I00
sg278
I01
sg40
I01
sstbg1107
g2820
tp2845
sg28
g78
sg63
I01
sbg9
(g19
g11
NtRp2846
(dp2847
g14
(lp2848
sg16
I2313662142834704392
sg17
Nsg18
(g9
(g23
g11
NtRp2849
((I0
S'fL'
I0
I4
t(dp2850
g26
I53
sg14
(lp2851
sg16
I-2502376452925460751
sg17
Nsg18
(tsg28
(dp2852
g41
I01
sg42
I00
sg43
I01
sg44
I00
sg171
I00
sg45
I00
sg31
I00
sg38
I00
sg32
I00
sg46
I01
sg47
I00
sg48
I00
sg33
I00
sg34
I01
sg35
I01
sg49
I00
sg37
I01
sg39
I01
sg174
I01
sg51
I00
sg278
I01
sg40
I01
sstbg1061
g9
(g52
g11
NtRp2853
(dp2854
g17
Nsg18
(g2828
tp2855
sg14
(lp2856
sg28
g1090
sg16
I8289822065693153829
sbtp2857
sg28
g78
sg63
I01
sbg9
(g19
g11
NtRp2858
(dp2859
g14
(lp2860
sg16
I5337873537883869255
sg17
Nsg18
(g9
(g23
g11
NtRp2861
((I1
S'69L'
I0
I7
t(dp2862
g26
I53
sg14
(lp2863
sg16
I60220716336317631
sg17
Nsg18
(tsg28
(dp2864
g41
I01
sg42
I00
sg43
I01
sg44
I00
sg30
I01
sg45
I00
sg31
I00
sg38
I01
sg32
I00
sg46
I01
sg47
I00
sg48
I00
sg33
I00
sg34
I01
sg35
I01
sg49
I00
sg37
I01
sg39
I01
sg50
I00
sg51
I00
sg36
I00
sg40
I01
sstbg1155
g2805
tp2865
sg28
g78
sg63
I01
sbg9
(g19
g11
NtRp2866
(dp2867
g14
(lp2868
sg16
I6209517400344657737
sg17
Nsg18
(g1204
g253
g218
g236
tp2869
sg28
g78
sg63
I01
sbg9
(g19
g11
NtRp2870
(dp2871
g14
(lp2872
sg16
I9222842164249554758
sg17
Nsg18
(g1219
g86
g162
g184
tp2873
sg28
g78
sg63
I01
sbtp2874
sg28
g285
sg63
I01
sbag9
(g10
g11
NtRp2875
(dp2876
g14
(lp2877
sg16
I-7190507396076019170
sg17
Nsg18
(g9
(g19
g11
NtRp2878
(dp2879
g14
(lp2880
sg16
I-7795302454093903836
sg17
Nsg18
(g9
(g23
g11
NtRp2881
((I0
S'3L'
I4
I2
t(dp2882
g26
I53
sg14
(lp2883
sg16
I8290848331410560139
sg17
Nsg18
(tsg28
(dp2884
g41
I01
sg42
I00
sg43
I01
sg44
I00
sg171
I00
sg45
I00
sg31
I00
sg38
I00
sg32
I00
sg46
I01
sg47
I00
sg48
I00
sg33
I00
sg34
I01
sg35
I01
sg49
I00
sg37
I01
sg39
I01
sg174
I01
sg51
I00
sg278
I01
sg40
I01
sstbg295
g184
tp2885
sg28
g78
sg63
I01
sbg9
(g19
g11
NtRp2886
(dp2887
g14
(lp2888
sg16
I-7445833449962676410
sg17
Nsg18
(g9
(g23
g11
NtRp2889
((I0
S'3L'
I4
I2
t(dp2890
g26
I53
sg14
(lp2891
sg16
I8290848331410560139
sg17
Nsg18
(tsg28
(dp2892
g41
I01
sg42
I00
sg43
I01
sg44
I00
sg171
I00
sg45
I00
sg31
I00
sg38
I00
sg32
I00
sg46
I01
sg47
I00
sg48
I00
sg33
I00
sg34
I01
sg35
I01
sg49
I00
sg37
I01
sg39
I01
sg174
I01
sg51
I00
sg278
I01
sg40
I01
sstbg372
g162
tp2893
sg28
g78
sg63
I01
sbg9
(g19
g11
NtRp2894
(dp2895
g14
(lp2896
sg16
I-6028252711473520983
sg17
Nsg18
(g1258
g420
g162
tp2897
sg28
g78
sg63
I01
sbg9
(g19
g11
NtRp2898
(dp2899
g14
(lp2900
sg16
I-5847701269560757110
sg17
Nsg18
(g1266
g253
g372
tp2901
sg28
g78
sg63
I01
sbg9
(g19
g11
NtRp2902
(dp2903
g14
(lp2904
sg16
I-4743902467722323758
sg17
Nsg18
(g9
(g23
g11
NtRp2905
((I1
S'69L'
I0
I7
t(dp2906
g26
I53
sg14
(lp2907
sg16
I60220716336317631
sg17
Nsg18
(tsg28
(dp2908
g41
I01
sg42
I00
sg43
I01
sg44
I00
sg30
I01
sg45
I00
sg31
I00
sg38
I01
sg32
I00
sg46
I01
sg47
I00
sg48
I00
sg33
I00
sg34
I01
sg35
I01
sg49
I00
sg37
I01
sg39
I01
sg50
I00
sg51
I00
sg36
I00
sg40
I01
sstbg1277
g2805
tp2909
sg28
g78
sg63
I01
sbg9
(g19
g11
NtRp2910
(dp2911
g14
(lp2912
sg16
I-1270398404892710307
sg17
Nsg18
(g9
(g23
g11
NtRp2913
((I0
S'fL'
I0
I4
t(dp2914
g26
I53
sg14
(lp2915
sg16
I-2502376452925460751
sg17
Nsg18
(tsg28
(dp2916
g41
I01
sg42
I00
sg43
I01
sg44
I00
sg171
I00
sg45
I00
sg31
I00
sg38
I00
sg32
I00
sg46
I01
sg47
I00
sg48
I00
sg33
I00
sg34
I01
sg35
I01
sg49
I00
sg37
I01
sg39
I01
sg174
I01
sg51
I00
sg278
I01
sg40
I01
sstbg1234
g2853
tp2917
sg28
g78
sg63
I01
sbg9
(g19
g11
NtRp2918
(dp2919
g14
(lp2920
sg16
I-1264424222296630190
sg17
Nsg18
(g1327
g295
g162
g184
tp2921
sg28
g78
sg63
I01
sbg9
(g19
g11
NtRp2922
(dp2923
g14
(lp2924
sg16
I-828627904193422321
sg17
Nsg18
(g1388
g116
g53
g313
tp2925
sg28
g78
sg63
I01
sbg9
(g19
g11
NtRp2926
(dp2927
g14
(lp2928
sg16
I158811205382830001
sg17
Nsg18
(g9
(g23
g11
NtRp2929
((I0
S'fL'
I0
I4
t(dp2930
g26
I53
sg14
(lp2931
sg16
I-2502376452925460751
sg17
Nsg18
(tsg28
(dp2932
g41
I01
sg42
I00
sg43
I01
sg44
I00
sg171
I00
sg45
I00
sg31
I00
sg38
I00
sg32
I00
sg46
I01
sg47
I00
sg48
I00
sg33
I00
sg34
I01
sg35
I01
sg49
I00
sg37
I01
sg39
I01
sg174
I01
sg51
I00
sg278
I01
sg40
I01
sstbg9
(g10
g11
NtRp2933
(dp2934
g14
(lp2935
sg16
I-953912772641626038
sg17
Nsg18
(g9
(g19
g11
NtRp2936
(dp2937
g14
(lp2938
sg16
I192327811235626395
sg17
Nsg18
(g9
(g23
g11
NtRp2939
((I0
S'1L'
I0
I1
t(dp2940
g26
I53
sg14
(lp2941
sg16
I-8838321674194594742
sg17
Nsg18
(tsg28
(dp2942
g41
I01
sg42
I00
sg43
I01
sg44
I00
sg171
I00
sg45
I00
sg31
I00
sg38
I00
sg32
I00
sg46
I01
sg47
I00
sg48
I00
sg33
I00
sg34
I01
sg35
I01
sg49
I00
sg37
I01
sg39
I01
sg174
I01
sg51
I00
sg278
I01
sg40
I01
sstbg1347
g2805
tp2943
sg28
g78
sg63
I01
sbg9
(g19
g11
NtRp2944
(dp2945
g14
(lp2946
sg16
I8375958559708581244
sg17
Nsg18
(g9
(g23
g11
NtRp2947
((I0
S'1L'
I0
I1
t(dp2948
g26
I53
sg14
(lp2949
sg16
I-8838321674194594742
sg17
Nsg18
(tsg28
(dp2950
g41
I01
sg42
I00
sg43
I01
sg44
I00
sg171
I00
sg45
I00
sg31
I00
sg38
I00
sg32
I00
sg46
I01
sg47
I00
sg48
I00
sg33
I00
sg34
I01
sg35
I01
sg49
I00
sg37
I01
sg39
I01
sg174
I01
sg51
I00
sg278
I01
sg40
I01
sstbg1277
g2820
tp2951
sg28
g78
sg63
I01
sbtp2952
sg28
g285
sg63
I01
sbg2826
tp2953
sg28
g78
sg63
I01
sbg9
(g19
g11
NtRp2954
(dp2955
g14
(lp2956
sg16
I2924002929639213070
sg17
Nsg18
(g9
(g23
g11
NtRp2957
((I0
S'69L'
I0
I7
t(dp2958
g26
I53
sg14
(lp2959
sg16
I2601078411346328320
sg17
Nsg18
(tsg28
(dp2960
g41
I01
sg42
I00
sg43
I01
sg44
I00
sg171
I00
sg45
I00
sg31
I00
sg38
I00
sg32
I00
sg46
I01
sg47
I00
sg48
I00
sg33
I00
sg34
I01
sg35
I01
sg49
I00
sg37
I01
sg39
I01
sg174
I01
sg51
I00
sg278
I01
sg40
I01
sstbg1347
g2820
tp2961
sg28
g78
sg63
I01
sbg9
(g19
g11
NtRp2962
(dp2963
g14
(lp2964
sg16
I3179208869680003355
sg17
Nsg18
(g1395
g116
g313
tp2965
sg28
g78
sg63
I01
sbg9
(g19
g11
NtRp2966
(dp2967
g14
(lp2968
sg16
I4095490653871073430
sg17
Nsg18
(g1402
g68
g313
g104
tp2969
sg28
g78
sg63
I01
sbtp2970
sg28
g285
sg63
I01
sbag9
(g10
g11
NtRp2971
(dp2972
g14
(lp2973
sg16
I-6877739891764488499
sg17
Nsg18
(g9
(g19
g11
NtRp2974
(dp2975
g14
(lp2976
sg16
I-6357318494324546892
sg17
Nsg18
(g1487
g253
g553
tp2977
sg28
g78
sg63
I01
sbg9
(g19
g11
NtRp2978
(dp2979
g14
(lp2980
sg16
I-6355515863310072651
sg17
Nsg18
(g1495
g620
g162
tp2981
sg28
g78
sg63
I01
sbg9
(g19
g11
NtRp2982
(dp2983
g14
(lp2984
sg16
I-5832606498116465545
sg17
Nsg18
(g9
(g23
g11
NtRp2985
((I0
S'fL'
I0
I4
t(dp2986
g26
I53
sg14
(lp2987
sg16
I-2502376452925460751
sg17
Nsg18
(tsg28
(dp2988
g41
I01
sg42
I00
sg43
I01
sg44
I00
sg171
I00
sg45
I00
sg31
I00
sg38
I00
sg32
I00
sg46
I01
sg47
I00
sg48
I00
sg33
I00
sg34
I01
sg35
I01
sg49
I00
sg37
I01
sg39
I01
sg174
I01
sg51
I00
sg278
I01
sg40
I01
sstbg9
(g10
g11
NtRp2989
(dp2990
g14
(lp2991
sg16
I4042163065056366476
sg17
Nsg18
(g9
(g19
g11
NtRp2992
(dp2993
g14
(lp2994
sg16
I-6828842876306095146
sg17
Nsg18
(g9
(g23
g11
NtRp2995
((I0
S'1L'
I0
I1
t(dp2996
g26
I53
sg14
(lp2997
sg16
I-8838321674194594742
sg17
Nsg18
(tsg28
(dp2998
g41
I01
sg42
I00
sg43
I01
sg44
I00
sg171
I00
sg45
I00
sg31
I00
sg38
I00
sg32
I00
sg46
I01
sg47
I00
sg48
I00
sg33
I00
sg34
I01
sg35
I01
sg49
I00
sg37
I01
sg39
I01
sg174
I01
sg51
I00
sg278
I01
sg40
I01
sstbg1437
g2820
tp2999
sg28
g78
sg63
I01
sbg9
(g19
g11
NtRp3000
(dp3001
g14
(lp3002
sg16
I6298327942908604865
sg17
Nsg18
(g9
(g23
g11
NtRp3003
((I0
S'1L'
I0
I1
t(dp3004
g26
I53
sg14
(lp3005
sg16
I-8838321674194594742
sg17
Nsg18
(tsg28
(dp3006
g41
I01
sg42
I00
sg43
I01
sg44
I00
sg171
I00
sg45
I00
sg31
I00
sg38
I00
sg32
I00
sg46
I01
sg47
I00
sg48
I00
sg33
I00
sg34
I01
sg35
I01
sg49
I00
sg37
I01
sg39
I01
sg174
I01
sg51
I00
sg278
I01
sg40
I01
sstbg1570
g2805
tp3007
sg28
g78
sg63
I01
sbtp3008
sg28
g285
sg63
I01
sbg2826
tp3009
sg28
g78
sg63
I01
sbg9
(g19
g11
NtRp3010
(dp3011
g14
(lp3012
sg16
I-5481660358300881344
sg17
Nsg18
(g1503
g116
g381
tp3013
sg28
g78
sg63
I01
sbg9
(g19
g11
NtRp3014
(dp3015
g14
(lp3016
sg16
I-4699213883443200848
sg17
Nsg18
(g1510
g116
g381
g53
tp3017
sg28
g78
sg63
I01
sbg9
(g19
g11
NtRp3018
(dp3019
g14
(lp3020
sg16
I-2751822351647063292
sg17
Nsg18
(g9
(g23
g11
NtRp3021
((I0
S'69L'
I0
I7
t(dp3022
g26
I53
sg14
(lp3023
sg16
I2601078411346328320
sg17
Nsg18
(tsg28
(dp3024
g41
I01
sg42
I00
sg43
I01
sg44
I00
sg171
I00
sg45
I00
sg31
I00
sg38
I00
sg32
I00
sg46
I01
sg47
I00
sg48
I00
sg33
I00
sg34
I01
sg35
I01
sg49
I00
sg37
I01
sg39
I01
sg174
I01
sg51
I00
sg278
I01
sg40
I01
sstbg1570
g2820
tp3025
sg28
g78
sg63
I01
sbg9
(g19
g11
NtRp3026
(dp3027
g14
(lp3028
sg16
I1041471441672016104
sg17
Nsg18
(g9
(g23
g11
NtRp3029
((I1
S'69L'
I0
I7
t(dp3030
g26
I53
sg14
(lp3031
sg16
I60220716336317631
sg17
Nsg18
(tsg28
(dp3032
g41
I01
sg42
I00
sg43
I01
sg44
I00
sg30
I01
sg45
I00
sg31
I00
sg38
I01
sg32
I00
sg46
I01
sg47
I00
sg48
I00
sg33
I00
sg34
I01
sg35
I01
sg49
I00
sg37
I01
sg39
I01
sg50
I00
sg51
I00
sg36
I00
sg40
I01
sstbg1437
g2805
tp3033
sg28
g78
sg63
I01
sbg9
(g19
g11
NtRp3034
(dp3035
g14
(lp3036
sg16
I1323563835371321915
sg17
Nsg18
(g9
(g23
g11
NtRp3037
((I0
S'fL'
I0
I4
t(dp3038
g26
I53
sg14
(lp3039
sg16
I-2502376452925460751
sg17
Nsg18
(tsg28
(dp3040
g41
I01
sg42
I00
sg43
I01
sg44
I00
sg171
I00
sg45
I00
sg31
I00
sg38
I00
sg32
I00
sg46
I01
sg47
I00
sg48
I00
sg33
I00
sg34
I01
sg35
I01
sg49
I00
sg37
I01
sg39
I01
sg174
I01
sg51
I00
sg278
I01
sg40
I01
sstbg1527
g2853
tp3041
sg28
g78
sg63
I01
sbg9
(g19
g11
NtRp3042
(dp3043
g14
(lp3044
sg16
I2433092481489119865
sg17
Nsg18
(g1604
g381
g68
g104
tp3045
sg28
g78
sg63
I01
sbg9
(g19
g11
NtRp3046
(dp3047
g14
(lp3048
sg16
I2522763366393611072
sg17
Nsg18
(g9
(g23
g11
NtRp3049
((I0
S'3L'
I4
I2
t(dp3050
g26
I53
sg14
(lp3051
sg16
I8290848331410560139
sg17
Nsg18
(tsg28
(dp3052
g41
I01
sg42
I00
sg43
I01
sg44
I00
sg171
I00
sg45
I00
sg31
I00
sg38
I00
sg32
I00
sg46
I01
sg47
I00
sg48
I00
sg33
I00
sg34
I01
sg35
I01
sg49
I00
sg37
I01
sg39
I01
sg174
I01
sg51
I00
sg278
I01
sg40
I01
sstbg553
g162
tp3053
sg28
g78
sg63
I01
sbg9
(g19
g11
NtRp3054
(dp3055
g14
(lp3056
sg16
I2609979626416438126
sg17
Nsg18
(g1611
g478
g162
g184
tp3057
sg28
g78
sg63
I01
sbg9
(g19
g11
NtRp3058
(dp3059
g14
(lp3060
sg16
I5526387971849255560
sg17
Nsg18
(g9
(g23
g11
NtRp3061
((I0
S'3L'
I4
I2
t(dp3062
g26
I53
sg14
(lp3063
sg16
I8290848331410560139
sg17
Nsg18
(tsg28
(dp3064
g41
I01
sg42
I00
sg43
I01
sg44
I00
sg171
I00
sg45
I00
sg31
I00
sg38
I00
sg32
I00
sg46
I01
sg47
I00
sg48
I00
sg33
I00
sg34
I01
sg35
I01
sg49
I00
sg37
I01
sg39
I01
sg174
I01
sg51
I00
sg278
I01
sg40
I01
sstbg478
g184
tp3065
sg28
g78
sg63
I01
sbtp3066
sg28
g285
sg63
I01
sbag9
(g23
g11
NtRp3067
((I0
S'1L'
I0
I1
t(dp3068
g26
I53
sg14
(lp3069
sg16
Nsg17
Nsg18
(tsg28
g643
stbatbsg73
g3
(g4
(I0
tS'b'
tRp3070
(I1
(I4
I1
tg7
I00
(lp3071
g9
(csympy.core.numbers
Zero
p3072
g11
NtRp3073
(dp3074
S'q'
I1
sS'p'
I0
sg14
(lp3075
sg16
I-3157700006611994746
sg17
Nsg18
(tsg28
(dp3076
g30
I01
sg31
I00
sS'zero'
p3077
I01
sS'odd'
p3078
I00
sS'even'
p3079
I01
sg35
I01
sS'positive'
p3080
I00
sS'noninteger'
p3081
I00
sS'negative'
p3082
I00
sg39
I01
sS'rational'
p3083
I01
sS'finite'
p3084
I00
sg261
I01
sS'nonzero'
p3085
I00
sg43
I01
sS'irrational'
p3086
I00
sS'composite'
p3087
I00
sg46
I01
sS'integer'
p3088
I01
sg48
I00
sS'prime'
p3089
I00
sg174
I01
sS'infinitesimal'
p3090
I01
ssbag3073
ag3073
ag9
(g23
g11
NtRp3091
((I0
S'1L'
I0
I1
t(dp3092
g26
I53
sg14
(lp3093
sg16
Nsg17
Nsg18
(tsg28
g643
stbatbsg2081
g3
(g4
(I0
tS'b'
tRp3094
(I1
(I4
I1
tg7
I00
(lp3095
g647
ag752
ag881
ag9
(g23
g11
NtRp3096
((I0
S'1L'
I0
I1
t(dp3097
g26
I53
sg14
(lp3098
sg16
Nsg17
Nsg18
(tsg28
g643
stbatbsS'HeadPitch'
p3099
g3
(g4
(I0
tS'b'
tRp3100
(I1
(I4
I1
tg7
I00
(lp3101
g12
ag286
ag469
ag9
(g23
g11
NtRp3102
((I0
S'1L'
I0
I1
t(dp3103
g26
I53
sg14
(lp3104
sg16
Nsg17
Nsg18
(tsg28
g643
stbatbsS'Torso'
p3105
g3
(g4
(I0
tS'b'
tRp3106
(I1
(I4
I1
tg7
I00
(lp3107
g9
(g10
g11
NtRp3108
(dp3109
g14
(lp3110
sg16
I1513104850584516404
sg17
Nsg18
(g9
(g19
g11
NtRp3111
(dp3112
g14
(lp3113
sg16
I-9052788253011388213
sg17
Nsg18
(g9
(g23
g11
NtRp3114
((I1
S'55L'
I0
I7
t(dp3115
g26
I53
sg14
(lp3116
sg16
I7878763082092801979
sg17
Nsg18
(tsg28
(dp3117
g41
I01
sg42
I00
sg43
I01
sg44
I00
sg30
I01
sg45
I00
sg31
I00
sg38
I01
sg32
I00
sg46
I01
sg47
I00
sg48
I00
sg33
I00
sg34
I01
sg35
I01
sg49
I00
sg37
I01
sg39
I01
sg50
I00
sg51
I00
sg36
I00
sg40
I01
sstbg725
g162
g184
tp3118
sg28
g78
sg63
I01
sbg9
(g19
g11
NtRp3119
(dp3120
g14
(lp3121
sg16
I-5662339764514342027
sg17
Nsg18
(g1022
g53
g68
tp3122
sg28
g78
sg63
I01
sbg9
(g19
g11
NtRp3123
(dp3124
g14
(lp3125
sg16
I-3908401231935465369
sg17
Nsg18
(g9
(g23
g11
NtRp3126
((I1
S'19L'
I1
I5
t(dp3127
g26
I53
sg14
(lp3128
sg16
I-5014737459536341256
sg17
Nsg18
(tsg28
g643
stbg725
g184
tp3129
sg28
g78
sg63
I01
sbg196
g9
(g19
g11
NtRp3130
(dp3131
g14
(lp3132
sg16
I588049676907542869
sg17
Nsg18
(g1051
g116
g104
tp3133
sg28
g78
sg63
I01
sbg9
(g19
g11
NtRp3134
(dp3135
g14
(lp3136
sg16
I1455190949654994594
sg17
Nsg18
(g9
(g23
g11
NtRp3137
((I0
S'55L'
I0
I7
t(dp3138
g26
I53
sg14
(lp3139
sg16
I3750183570293013148
sg17
Nsg18
(tsg28
(dp3140
g41
I01
sg42
I00
sg43
I01
sg44
I00
sg171
I00
sg45
I00
sg31
I00
sg38
I00
sg32
I00
sg46
I01
sg47
I00
sg48
I00
sg33
I00
sg34
I01
sg35
I01
sg49
I00
sg37
I01
sg39
I01
sg174
I01
sg51
I00
sg278
I01
sg40
I01
sstbg656
g279
g162
tp3141
sg28
g78
sg63
I01
sbg9
(g19
g11
NtRp3142
(dp3143
g14
(lp3144
sg16
I3881670972001836852
sg17
Nsg18
(g9
(g23
g11
NtRp3145
((I0
S'19L'
I1
I5
t(dp3146
g26
I53
sg14
(lp3147
sg16
I2580433242203447463
sg17
Nsg18
(tsg28
g643
stbg656
g162
g236
tp3148
sg28
g78
sg63
I01
sbg9
(g19
g11
NtRp3149
(dp3150
g14
(lp3151
sg16
I8706473172667743340
sg17
Nsg18
(g9
(g23
g11
NtRp3152
((I1
S'55L'
I0
I7
t(dp3153
g26
I53
sg14
(lp3154
sg16
I7878763082092801979
sg17
Nsg18
(tsg28
(dp3155
g41
I01
sg42
I00
sg43
I01
sg44
I00
sg30
I01
sg45
I00
sg31
I00
sg38
I01
sg32
I00
sg46
I01
sg47
I00
sg48
I00
sg33
I00
sg34
I01
sg35
I01
sg49
I00
sg37
I01
sg39
I01
sg50
I00
sg51
I00
sg36
I00
sg40
I01
sstbg253
g656
g236
tp3156
sg28
g78
sg63
I01
sbtp3157
sg28
g285
sg63
I01
sbag9
(g10
g11
NtRp3158
(dp3159
g14
(lp3160
sg16
I-2429934117696474309
sg17
Nsg18
(g9
(g19
g11
NtRp3161
(dp3162
g14
(lp3163
sg16
I-4460420448024471402
sg17
Nsg18
(g9
(g23
g11
NtRp3164
((I0
S'55L'
I0
I7
t(dp3165
g26
I53
sg14
(lp3166
sg16
I3750183570293013148
sg17
Nsg18
(tsg28
(dp3167
g41
I01
sg42
I00
sg43
I01
sg44
I00
sg171
I00
sg45
I00
sg31
I00
sg38
I00
sg32
I00
sg46
I01
sg47
I00
sg48
I00
sg33
I00
sg34
I01
sg35
I01
sg49
I00
sg37
I01
sg39
I01
sg174
I01
sg51
I00
sg278
I01
sg40
I01
sstbg1303
g162
tp3168
sg28
g78
sg63
I01
sbg9
(g19
g11
NtRp3169
(dp3170
g14
(lp3171
sg16
I-3933463152952761625
sg17
Nsg18
(g9
(g23
g11
NtRp3172
((I1
S'55L'
I0
I7
t(dp3173
g26
I53
sg14
(lp3174
sg16
I7878763082092801979
sg17
Nsg18
(tsg28
(dp3175
g41
I01
sg42
I00
sg43
I01
sg44
I00
sg30
I01
sg45
I00
sg31
I00
sg38
I01
sg32
I00
sg46
I01
sg47
I00
sg48
I00
sg33
I00
sg34
I01
sg35
I01
sg49
I00
sg37
I01
sg39
I01
sg50
I00
sg51
I00
sg36
I00
sg40
I01
sstbg782
g162
g184
tp3176
sg28
g78
sg63
I01
sbg9
(g19
g11
NtRp3177
(dp3178
g14
(lp3179
sg16
I-1761827099595655349
sg17
Nsg18
(g9
(g23
g11
NtRp3180
((I1
S'19L'
I1
I5
t(dp3181
g26
I53
sg14
(lp3182
sg16
I-5014737459536341256
sg17
Nsg18
(tsg28
g643
stbg782
g184
tp3183
sg28
g78
sg63
I01
sbg9
(g19
g11
NtRp3184
(dp3185
g14
(lp3186
sg16
I-828627904193422321
sg17
Nsg18
(g1388
g116
g53
g313
tp3187
sg28
g78
sg63
I01
sbg9
(g19
g11
NtRp3188
(dp3189
g14
(lp3190
sg16
I3179208869680003355
sg17
Nsg18
(g1395
g116
g313
tp3191
sg28
g78
sg63
I01
sbg9
(g19
g11
NtRp3192
(dp3193
g14
(lp3194
sg16
I4095490653871073430
sg17
Nsg18
(g1402
g68
g313
g104
tp3195
sg28
g78
sg63
I01
sbg9
(g19
g11
NtRp3196
(dp3197
g14
(lp3198
sg16
I4737683704174431837
sg17
Nsg18
(g9
(g23
g11
NtRp3199
((I0
S'55L'
I0
I7
t(dp3200
g26
I53
sg14
(lp3201
sg16
I3750183570293013148
sg17
Nsg18
(tsg28
(dp3202
g41
I01
sg42
I00
sg43
I01
sg44
I00
sg171
I00
sg45
I00
sg31
I00
sg38
I00
sg32
I00
sg46
I01
sg47
I00
sg48
I00
sg33
I00
sg34
I01
sg35
I01
sg49
I00
sg37
I01
sg39
I01
sg174
I01
sg51
I00
sg278
I01
sg40
I01
sstbg253
g843
tp3203
sg28
g78
sg63
I01
sbg9
(g19
g11
NtRp3204
(dp3205
g14
(lp3206
sg16
I8534441163726783889
sg17
Nsg18
(g9
(g23
g11
NtRp3207
((I1
S'19L'
I1
I5
t(dp3208
g26
I53
sg14
(lp3209
sg16
I-5014737459536341256
sg17
Nsg18
(tsg28
g643
stbg843
g162
tp3210
sg28
g78
sg63
I01
sbtp3211
sg28
g285
sg63
I01
sbag9
(g10
g11
NtRp3212
(dp3213
g14
(lp3214
sg16
I6971120152478331214
sg17
Nsg18
(g9
(g19
g11
NtRp3215
(dp3216
g14
(lp3217
sg16
I-6556487281345382977
sg17
Nsg18
(g9
(g23
g11
NtRp3218
((I1
S'19L'
I1
I5
t(dp3219
g26
I53
sg14
(lp3220
sg16
I-5014737459536341256
sg17
Nsg18
(tsg28
g643
stbg904
g184
tp3221
sg28
g78
sg63
I01
sbg9
(g19
g11
NtRp3222
(dp3223
g14
(lp3224
sg16
I-5614095636322810333
sg17
Nsg18
(g9
(g23
g11
NtRp3225
((I1
S'55L'
I0
I7
t(dp3226
g26
I53
sg14
(lp3227
sg16
I7878763082092801979
sg17
Nsg18
(tsg28
(dp3228
g41
I01
sg42
I00
sg43
I01
sg44
I00
sg30
I01
sg45
I00
sg31
I00
sg38
I01
sg32
I00
sg46
I01
sg47
I00
sg48
I00
sg33
I00
sg34
I01
sg35
I01
sg49
I00
sg37
I01
sg39
I01
sg50
I00
sg51
I00
sg36
I00
sg40
I01
sstbg904
g162
g184
tp3229
sg28
g78
sg63
I01
sbg9
(g19
g11
NtRp3230
(dp3231
g14
(lp3232
sg16
I-5481660358300881344
sg17
Nsg18
(g1503
g116
g381
tp3233
sg28
g78
sg63
I01
sbg9
(g19
g11
NtRp3234
(dp3235
g14
(lp3236
sg16
I-4699213883443200848
sg17
Nsg18
(g1510
g116
g381
g53
tp3237
sg28
g78
sg63
I01
sbg9
(g19
g11
NtRp3238
(dp3239
g14
(lp3240
sg16
I-4184198858367150417
sg17
Nsg18
(g9
(g23
g11
NtRp3241
((I1
S'19L'
I1
I5
t(dp3242
g26
I53
sg14
(lp3243
sg16
I-5014737459536341256
sg17
Nsg18
(tsg28
g643
stbg972
g162
tp3244
sg28
g78
sg63
I01
sbg9
(g19
g11
NtRp3245
(dp3246
g14
(lp3247
sg16
I2433092481489119865
sg17
Nsg18
(g1604
g381
g68
g104
tp3248
sg28
g78
sg63
I01
sbg9
(g19
g11
NtRp3249
(dp3250
g14
(lp3251
sg16
I6545055311172634163
sg17
Nsg18
(g9
(g23
g11
NtRp3252
((I0
S'55L'
I0
I7
t(dp3253
g26
I53
sg14
(lp3254
sg16
I3750183570293013148
sg17
Nsg18
(tsg28
(dp3255
g41
I01
sg42
I00
sg43
I01
sg44
I00
sg171
I00
sg45
I00
sg31
I00
sg38
I00
sg32
I00
sg46
I01
sg47
I00
sg48
I00
sg33
I00
sg34
I01
sg35
I01
sg49
I00
sg37
I01
sg39
I01
sg174
I01
sg51
I00
sg278
I01
sg40
I01
sstbg253
g972
tp3256
sg28
g78
sg63
I01
sbg9
(g19
g11
NtRp3257
(dp3258
g14
(lp3259
sg16
I7008582559137688290
sg17
Nsg18
(g9
(g23
g11
NtRp3260
((I0
S'55L'
I0
I7
t(dp3261
g26
I53
sg14
(lp3262
sg16
I3750183570293013148
sg17
Nsg18
(tsg28
(dp3263
g41
I01
sg42
I00
sg43
I01
sg44
I00
sg171
I00
sg45
I00
sg31
I00
sg38
I00
sg32
I00
sg46
I01
sg47
I00
sg48
I00
sg33
I00
sg34
I01
sg35
I01
sg49
I00
sg37
I01
sg39
I01
sg174
I01
sg51
I00
sg278
I01
sg40
I01
sstbg1455
g162
tp3264
sg28
g78
sg63
I01
sbtp3265
sg28
g285
sg63
I01
sbag9
(g23
g11
NtRp3266
((I0
S'1L'
I0
I1
t(dp3267
g26
I53
sg14
(lp3268
sg16
Nsg17
Nsg18
(tsg28
g643
stbatbsS'LElbowRoll'
p3269
g3
(g4
(I0
tS'b'
tRp3270
(I1
(I4
I1
tg7
I00
(lp3271
g2761
ag2875
ag2971
ag9
(g23
g11
NtRp3272
((I0
S'1L'
I0
I1
t(dp3273
g26
I53
sg14
(lp3274
sg16
Nsg17
Nsg18
(tsg28
g643
stbatbsg1086
g3
(g4
(I0
tS'b'
tRp3275
(I1
(I4
I1
tg7
I00
(lp3276
g1636
ag1690
ag1750
ag9
(g23
g11
NtRp3277
((I0
S'1L'
I0
I1
t(dp3278
g26
I53
sg14
(lp3279
sg16
Nsg17
Nsg18
(tsg28
g643
stbatbsg318
g3
(g4
(I0
tS'b'
tRp3280
(I1
(I4
I1
tg7
I00
(lp3281
g3073
ag3073
ag3073
ag9
(csympy.core.numbers
One
p3282
g11
NtRp3283
(dp3284
S'q'
I1
sS'p'
I1
sg14
(lp3285
sg16
I-237126060543571952
sg17
Nsg18
(tsg28
(dp3286
S'prime'
p3287
I01
sS'real'
p3288
I01
sg43
I01
sg40
I01
sg35
I01
sg51
I00
sS'nonpositive'
p3289
I00
sS'composite'
p3290
I00
sS'positive'
p3291
I01
sS'noninteger'
p3292
I00
sS'negative'
p3293
I00
sg174
I01
sS'zero'
p3294
I00
sS'complex'
p3295
I01
sg46
I01
sg3083
I01
sg31
I00
sg3088
I01
sS'imaginary'
p3296
I00
sg262
I01
sS'irrational'
p3297
I00
ssbatbsg178
g3
(g4
(I0
tS'b'
tRp3298
(I1
(I4
I1
tg7
I00
(lp3299
g2687
ag2705
ag2730
ag9
(g23
g11
NtRp3300
((I0
S'1L'
I0
I1
t(dp3301
g26
I53
sg14
(lp3302
sg16
Nsg17
Nsg18
(tsg28
g643
stbatbsS'RAnklePitch'
p3303
g3
(g4
(I0
tS'b'
tRp3304
(I1
(I4
I1
tg7
I00
(lp3305
g2015
ag2276
ag2476
ag9
(g23
g11
NtRp3306
((I0
S'1L'
I0
I1
t(dp3307
g26
I53
sg14
(lp3308
sg16
Nsg17
Nsg18
(tsg28
g643
stbatbsg241
g3
(g4
(I0
tS'b'
tRp3309
(I1
(I4
I1
tg7
I00
(lp3310
g2687
ag2705
ag2730
ag9
(g23
g11
NtRp3311
((I0
S'1L'
I0
I1
t(dp3312
g26
I53
sg14
(lp3313
sg16
Nsg17
Nsg18
(tsg28
g643
stbatbsg2105
g3
(g4
(I0
tS'b'
tRp3314
(I1
(I4
I1
tg7
I00
(lp3315
g647
ag752
ag881
ag9
(g23
g11
NtRp3316
((I0
S'1L'
I0
I1
t(dp3317
g26
I53
sg14
(lp3318
sg16
Nsg17
Nsg18
(tsg28
g643
stbatbsS'RElbowRoll'
p3319
g3
(g4
(I0
tS'b'
tRp3320
(I1
(I4
I1
tg7
I00
(lp3321
g1016
ag1225
ag1428
ag9
(g23
g11
NtRp3322
((I0
S'1L'
I0
I1
t(dp3323
g26
I53
sg14
(lp3324
sg16
Nsg17
Nsg18
(tsg28
g643
stbatbsg2231
g3
(g4
(I0
tS'b'
tRp3325
(I1
(I4
I1
tg7
I00
(lp3326
g9
(g10
g11
NtRp3327
(dp3328
g14
(lp3329
sg16
I5704976024737406287
sg17
Nsg18
(g9
(g19
g11
NtRp3330
(dp3331
g14
(lp3332
sg16
I-8009663761771334323
sg17
Nsg18
(g2021
g656
g162
g236
tp3333
sg28
g78
sg63
I01
sbg9
(g19
g11
NtRp3334
(dp3335
g14
(lp3336
sg16
I-5662339764514342027
sg17
Nsg18
(g1022
g53
g68
tp3337
sg28
g78
sg63
I01
sbg9
(g19
g11
NtRp3338
(dp3339
g14
(lp3340
sg16
I-3298461398192634516
sg17
Nsg18
(g2033
g725
g184
tp3341
sg28
g78
sg63
I01
sbg196
g9
(g19
g11
NtRp3342
(dp3343
g14
(lp3344
sg16
I588049676907542869
sg17
Nsg18
(g1051
g116
g104
tp3345
sg28
g78
sg63
I01
sbg9
(g19
g11
NtRp3346
(dp3347
g14
(lp3348
sg16
I1260697175143177638
sg17
Nsg18
(g9
(g23
g11
NtRp3349
((I1
S'19L'
I2
I5
t(dp3350
g26
I53
sg14
(lp3351
sg16
I-2346872259468522873
sg17
Nsg18
(tsg28
g643
stbg2049
g2155
tp3352
sg28
g78
sg63
I01
sbg9
(g19
g11
NtRp3353
(dp3354
g14
(lp3355
sg16
I5887565165076979804
sg17
Nsg18
(g9
(g23
g11
NtRp3356
((I1
S'19L'
I2
I5
t(dp3357
g26
I53
sg14
(lp3358
sg16
I-2346872259468522873
sg17
Nsg18
(tsg28
g643
stbg2192
g2180
tp3359
sg28
g78
sg63
I01
sbtp3360
sg28
g285
sg63
I01
sbag9
(g10
g11
NtRp3361
(dp3362
g14
(lp3363
sg16
I-5793759421360295447
sg17
Nsg18
(g9
(g19
g11
NtRp3364
(dp3365
g14
(lp3366
sg16
I-828627904193422321
sg17
Nsg18
(g1388
g116
g53
g313
tp3367
sg28
g78
sg63
I01
sbg9
(g19
g11
NtRp3368
(dp3369
g14
(lp3370
sg16
I3179208869680003355
sg17
Nsg18
(g1395
g116
g313
tp3371
sg28
g78
sg63
I01
sbg9
(g19
g11
NtRp3372
(dp3373
g14
(lp3374
sg16
I4095490653871073430
sg17
Nsg18
(g1402
g68
g313
g104
tp3375
sg28
g78
sg63
I01
sbg9
(g19
g11
NtRp3376
(dp3377
g14
(lp3378
sg16
I4545619125039190731
sg17
Nsg18
(g9
(g23
g11
NtRp3379
((I1
S'19L'
I2
I5
t(dp3380
g26
I53
sg14
(lp3381
sg16
I-2346872259468522873
sg17
Nsg18
(tsg28
g643
stbg2296
g2155
tp3382
sg28
g78
sg63
I01
sbg9
(g19
g11
NtRp3383
(dp3384
g14
(lp3385
sg16
I6107688169049442264
sg17
Nsg18
(g2454
g782
g184
tp3386
sg28
g78
sg63
I01
sbg9
(g19
g11
NtRp3387
(dp3388
g14
(lp3389
sg16
I6398098343146629149
sg17
Nsg18
(g9
(g23
g11
NtRp3390
((I1
S'19L'
I2
I5
t(dp3391
g26
I53
sg14
(lp3392
sg16
I-2346872259468522873
sg17
Nsg18
(tsg28
g643
stbg2372
g2180
tp3393
sg28
g78
sg63
I01
sbg9
(g19
g11
NtRp3394
(dp3395
g14
(lp3396
sg16
I8211457612239154898
sg17
Nsg18
(g2470
g843
g162
tp3397
sg28
g78
sg63
I01
sbtp3398
sg28
g285
sg63
I01
sbag9
(g10
g11
NtRp3399
(dp3400
g14
(lp3401
sg16
I3845389066108413766
sg17
Nsg18
(g9
(g19
g11
NtRp3402
(dp3403
g14
(lp3404
sg16
I-8985543879598943795
sg17
Nsg18
(g9
(g23
g11
NtRp3405
((I1
S'19L'
I2
I5
t(dp3406
g26
I53
sg14
(lp3407
sg16
I-2346872259468522873
sg17
Nsg18
(tsg28
g643
stbg2486
g2155
tp3408
sg28
g78
sg63
I01
sbg9
(g19
g11
NtRp3409
(dp3410
g14
(lp3411
sg16
I-5481660358300881344
sg17
Nsg18
(g1503
g116
g381
tp3412
sg28
g78
sg63
I01
sbg9
(g19
g11
NtRp3413
(dp3414
g14
(lp3415
sg16
I-4699213883443200848
sg17
Nsg18
(g1510
g116
g381
g53
tp3416
sg28
g78
sg63
I01
sbg9
(g19
g11
NtRp3417
(dp3418
g14
(lp3419
sg16
I-4412362627400958188
sg17
Nsg18
(g2566
g904
g184
tp3420
sg28
g78
sg63
I01
sbg9
(g19
g11
NtRp3421
(dp3422
g14
(lp3423
sg16
I2433092481489119865
sg17
Nsg18
(g1604
g381
g68
g104
tp3424
sg28
g78
sg63
I01
sbg9
(g19
g11
NtRp3425
(dp3426
g14
(lp3427
sg16
I3021090195557101983
sg17
Nsg18
(g9
(g23
g11
NtRp3428
((I1
S'19L'
I2
I5
t(dp3429
g26
I53
sg14
(lp3430
sg16
I-2346872259468522873
sg17
Nsg18
(tsg28
g643
stbg2588
g2180
tp3431
sg28
g78
sg63
I01
sbg9
(g19
g11
NtRp3432
(dp3433
g14
(lp3434
sg16
I4796684989092749028
sg17
Nsg18
(g2670
g972
g162
tp3435
sg28
g78
sg63
I01
sbtp3436
sg28
g285
sg63
I01
sbag9
(g23
g11
NtRp3437
((I0
S'1L'
I0
I1
t(dp3438
g26
I53
sg14
(lp3439
sg16
Nsg17
Nsg18
(tsg28
g643
stbatbs.