(dp1
S'HeadYaw'
p2
cnumpy.core.multiarray
_reconstruct
p3
(cnumpy.matrixlib.defmatrix
matrix
p4
(I0
tS'b'
tRp5
(I1
(I4
I1
tcnumpy
dtype
p6
(S'O8'
I0
I1
tRp7
(I3
S'|'
NNNI-1
I-1
I63
tbI00
(lp8
ccopy_reg
_reconstructor
p9
(csympy.core.add
Add
p10
c__builtin__
object
p11
NtRp12
(dp13
S'_a_inprogress'
p14
(lp15
sS'_mhash'
p16
I4227152867503962292
sS'_assume_type_keys'
p17
NsS'_args'
p18
(g9
(csympy.core.mul
Mul
p19
g11
NtRp20
(dp21
g14
(lp22
sg16
I-8064060080651148587
sg17
Nsg18
(g9
(csympy.core.numbers
Float
p23
g11
NtRp24
((I1
S'cdccccccccccdL'
I-45
I52
t(dp25
S'_prec'
p26
I53
sg14
(lp27
sg16
I6674920830780898407
sg17
Nsg18
(tsS'_assumptions'
p28
(dp29
S'real'
p30
I01
sS'nonzero'
p31
I01
sS'comparable'
p32
I01
sS'irrational'
p33
I00
sS'infinitesimal'
p34
I00
sS'composite'
p35
I00
sS'unbounded'
p36
I00
sS'noninteger'
p37
I01
sS'even'
p38
I00
sS'prime'
p39
I00
sS'zero'
p40
I00
sS'complex'
p41
I01
sS'bounded'
p42
I01
sS'integer'
p43
I00
sS'imaginary'
p44
I00
sS'finite'
p45
I01
sS'odd'
p46
I00
sS'commutative'
p47
I01
sstbg9
(csympy.functions.elementary.trigonometric
sin
p48
g11
NtRp49
(dp50
g17
Nsg18
(g9
(csympy.core.symbol
Symbol
p51
g11
NtRp52
(dp53
g14
(lp54
sS'name'
p55
S'RAnklePitch'
p56
sg17
Nsg18
(tsg28
(dp57
S'comparable'
p58
I00
ssS'is_commutative'
p59
I01
sg16
I-1130999792236101032
sbtp60
sg14
(lp61
sg28
(dp62
sg16
I-1543696557360151338
sbtp63
sg28
(dp64
sg59
I01
sbg9
(g19
g11
NtRp65
(dp66
g14
(lp67
sg16
I-7319013444546597306
sg17
Nsg18
(g9
(g23
g11
NtRp68
((I0
S'1a7L'
I-1
I9
t(dp69
g26
I53
sg14
(lp70
sg16
I-2739517552269624854
sg17
Nsg18
(tsg28
(dp71
g30
I01
sg31
I01
sg32
I01
sg37
I01
sg33
I00
sg34
I00
sg35
I00
sg36
I00
sg38
I00
sg39
I00
sg40
I00
sg41
I01
sg42
I01
sg43
I00
sg44
I00
sg45
I01
sg46
I00
sg47
I01
sstbg9
(g10
g11
NtRp72
(dp73
g14
(lp74
sg16
I-3889398119881661334
sg17
Nsg18
(g9
(g19
g11
NtRp75
(dp76
g14
(lp77
sg16
I-7804276652697045152
sg17
Nsg18
(g9
(g23
g11
NtRp78
((I0
S'1L'
I0
I1
t(dp79
g26
I53
sg14
(lp80
sg16
I-8838321674194594742
sg17
Nsg18
(tsg28
(dp81
g30
I01
sg31
I01
sg32
I01
sg33
I00
sg35
I00
sg36
I00
sg46
I00
sg37
I01
sg41
I01
sg39
I00
sg40
I00
sg34
I00
sg42
I01
sg43
I00
sg44
I00
sg45
I01
sg38
I00
sg47
I01
sstbg9
(g10
g11
NtRp82
(dp83
g14
(lp84
sg16
I-5019669510191283613
sg17
Nsg18
(g9
(g19
g11
NtRp85
(dp86
g14
(lp87
sg16
I6382970936317910455
sg17
Nsg18
(g9
(g23
g11
NtRp88
((I1
S'1L'
I0
I1
t(dp89
g26
I53
sg14
(lp90
sg16
I1652741725224645181
sg17
Nsg18
(tsg28
g81
stbg9
(csympy.functions.elementary.trigonometric
cos
p91
g11
NtRp92
(dp93
g17
Nsg18
(g52
tp94
sg14
(lp95
sg28
(dp96
sg16
I283568107706864249
sbg9
(g48
g11
NtRp97
(dp98
g17
Nsg18
(g9
(g51
g11
NtRp99
(dp100
g14
(lp101
sg55
S'RKneePitch'
p102
sg17
Nsg18
(tsg28
g57
sg59
I01
sg16
I-3403628589140024565
sbtp103
sg14
(lp104
sg28
g62
sg16
I-3871462797041237265
sbtp105
sg28
(dp106
sg59
I01
sbg9
(g19
g11
NtRp107
(dp108
g14
(lp109
sg16
I9157811864455872575
sg17
Nsg18
(g9
(g23
g11
NtRp110
((I1
S'1L'
I0
I1
t(dp111
g26
I53
sg14
(lp112
sg16
I1652741725224645181
sg17
Nsg18
(tsg28
g81
stbg9
(g91
g11
NtRp113
(dp114
g17
Nsg18
(g99
tp115
sg14
(lp116
sg28
g96
sg16
I923061065219270732
sbg49
tp117
sg28
g106
sg59
I01
sbtp118
sg28
(dp119
sg59
I01
sbg9
(g91
g11
NtRp120
(dp121
g17
Nsg18
(g9
(g51
g11
NtRp122
(dp123
g14
(lp124
sg55
S'RHipPitch'
p125
sg17
Nsg18
(tsg28
g57
sg59
I01
sg16
I8412941724497341072
sbtp126
sg14
(lp127
sg28
g96
sg16
I5858248208270685473
sbtp128
sg28
g106
sg59
I01
sbg9
(g19
g11
NtRp129
(dp130
g14
(lp131
sg16
I-5864072710691846331
sg17
Nsg18
(g9
(g23
g11
NtRp132
((I1
S'1L'
I0
I1
t(dp133
g26
I53
sg14
(lp134
sg16
I1652741725224645181
sg17
Nsg18
(tsg28
g81
stbg9
(g10
g11
NtRp135
(dp136
g14
(lp137
sg16
I6145302372893004550
sg17
Nsg18
(g9
(g19
g11
NtRp138
(dp139
g14
(lp140
sg16
I-8884415907403323809
sg17
Nsg18
(g9
(g23
g11
NtRp141
((I0
S'1L'
I0
I1
t(dp142
g26
I53
sg14
(lp143
sg16
I-8838321674194594742
sg17
Nsg18
(tsg28
g81
stbg92
g113
tp144
sg28
g106
sg59
I01
sbg9
(g19
g11
NtRp145
(dp146
g14
(lp147
sg16
I-3153936104822300260
sg17
Nsg18
(g9
(g23
g11
NtRp148
((I1
S'1L'
I0
I1
t(dp149
g26
I53
sg14
(lp150
sg16
I1652741725224645181
sg17
Nsg18
(tsg28
g81
stbg49
g97
tp151
sg28
g106
sg59
I01
sbtp152
sg28
g119
sg59
I01
sbg9
(g48
g11
NtRp153
(dp154
g17
Nsg18
(g122
tp155
sg14
(lp156
sg28
g62
sg16
I-9099541077812990978
sbtp157
sg28
g106
sg59
I01
sbtp158
sg28
g119
sg59
I01
sbg9
(g91
g11
NtRp159
(dp160
g17
Nsg18
(g9
(g51
g11
NtRp161
(dp162
g14
(lp163
sg55
S'RHipRoll'
p164
sg17
Nsg18
(tsg28
g57
sg59
I01
sg16
I-1885549387084301136
sbtp165
sg14
(lp166
sg28
g96
sg16
I-2688724537447946559
sbg9
(g91
g11
NtRp167
(dp168
g17
Nsg18
(g9
(g19
g11
NtRp169
(dp170
g14
(lp171
sg16
I-4897894229503079548
sg17
Nsg18
(g9
(g23
g11
NtRp172
((I0
S'1L'
I-1
I1
t(dp173
g26
I53
sg14
(lp174
sg16
I5953416778363468544
sg17
Nsg18
(tsg28
(dp175
S'nonpositive'
p176
I00
sg36
I00
sg40
I00
sg46
I00
sg38
I00
sg47
I01
sS'positive'
p177
I01
sg37
I01
sS'negative'
p178
I00
sg41
I01
sg45
I01
sg30
I01
sg31
I01
sg32
I01
sg33
I00
sg35
I00
sg42
I01
sg43
I00
sg44
I00
sg39
I00
sS'nonnegative'
p179
I01
sg34
I00
sstbg9
(g51
g11
NtRp180
(dp181
g14
(lp182
sg55
S'RHipYawPitch'
p183
sg17
Nsg18
(tsg28
g57
sg59
I01
sg16
I-5793360570553647636
sbtp184
sg28
(dp185
S'comparable'
p186
I00
ssg59
I01
sbtp187
sg14
(lp188
sg28
g96
sg16
I6846700968409470429
sbtp189
sg28
(dp190
sg59
I01
sbg9
(g19
g11
NtRp191
(dp192
g14
(lp193
sg16
I-5602066592115065747
sg17
Nsg18
(g9
(g23
g11
NtRp194
((I1
S'19L'
I2
I5
t(dp195
g26
I53
sg14
(lp196
sg16
I-2346872259468522873
sg17
Nsg18
(tsg28
g81
stbg113
g49
tp197
sg28
g190
sg59
I01
sbg9
(g19
g11
NtRp198
(dp199
g14
(lp200
sg16
I-5256093983858477769
sg17
Nsg18
(g9
(g23
g11
NtRp201
((I1
S'1a7L'
I-1
I9
t(dp202
g26
I53
sg14
(lp203
sg16
I-4798194589019843811
sg17
Nsg18
(tsg28
g71
stbg9
(g10
g11
NtRp204
(dp205
g14
(lp206
sg16
I5672355531035731409
sg17
Nsg18
(g9
(g19
g11
NtRp207
(dp208
g14
(lp209
sg16
I-7458618630199251681
sg17
Nsg18
(g9
(g23
g11
NtRp210
((I0
S'1L'
I0
I1
t(dp211
g26
I53
sg14
(lp212
sg16
I-8838321674194594742
sg17
Nsg18
(tsg28
g81
stbg82
g153
tp213
sg28
g106
sg59
I01
sbg9
(g19
g11
NtRp214
(dp215
g14
(lp216
sg16
I6146949395220637689
sg17
Nsg18
(g9
(g23
g11
NtRp217
((I0
S'1L'
I0
I1
t(dp218
g26
I53
sg14
(lp219
sg16
I-8838321674194594742
sg17
Nsg18
(tsg28
g81
stbg135
g120
tp220
sg28
g106
sg59
I01
sbtp221
sg28
g119
sg59
I01
sbg167
g9
(g48
g11
NtRp222
(dp223
g17
Nsg18
(g169
tp224
sg14
(lp225
sg28
g62
sg16
I3913187467881909434
sbtp226
sg28
g190
sg59
I01
sbg9
(g19
g11
NtRp227
(dp228
g14
(lp229
sg16
I-4430157474774433592
sg17
Nsg18
(g9
(g23
g11
NtRp230
((I0
S'19L'
I1
I5
t(dp231
g26
I53
sg14
(lp232
sg16
I2580433242203447463
sg17
Nsg18
(tsg28
g81
stbg204
g222
tp233
sg28
g190
sg59
I01
sbg9
(g19
g11
NtRp234
(dp235
g14
(lp236
sg16
I-2668356383902362293
sg17
Nsg18
(g9
(g23
g11
NtRp237
((I1
S'19L'
I1
I5
t(dp238
g26
I53
sg14
(lp239
sg16
I-5014737459536341256
sg17
Nsg18
(tsg28
g81
stbg72
g167
g9
(g48
g11
NtRp240
(dp241
g17
Nsg18
(g161
tp242
sg14
(lp243
sg28
g62
sg16
I-5606816324853154402
sbtp244
sg28
g190
sg59
I01
sbg9
(g19
g11
NtRp245
(dp246
g14
(lp247
sg16
I3189572107750417304
sg17
Nsg18
(g9
(g23
g11
NtRp248
((I1
S'1a7L'
I-1
I9
t(dp249
g26
I53
sg14
(lp250
sg16
I-4798194589019843811
sg17
Nsg18
(tsg28
g71
stbg9
(csympy.core.power
Pow
p251
g11
NtRp252
(dp253
g14
(lp254
sg17
Nsg18
(g222
g9
(csympy.core.numbers
Integer
p255
g11
NtRp256
(dp257
S'q'
I1
sS'p'
I2
sg14
(lp258
sg16
I6250422013836517545
sg17
Nsg18
(tsg28
(dp259
S'real'
p260
I01
sS'nonzero'
p261
I01
sg32
I01
sg47
I01
sg176
I00
sg36
I00
sS'noninteger'
p262
I00
sg178
I00
sg179
I01
sS'zero'
p263
I00
sg34
I00
sg42
I01
sS'rational'
p264
I01
sg177
I01
sS'integer'
p265
I01
sg44
I00
sg45
I01
sg41
I01
sS'irrational'
p266
I00
ssbtp267
sg28
(dp268
sg59
I01
sg16
I-6998185883858428151
sbg72
g240
tp269
sg28
g190
sg59
I01
sbg9
(g19
g11
NtRp270
(dp271
g14
(lp272
sg16
I3960466736704400709
sg17
Nsg18
(g9
(g23
g11
NtRp273
((I1
S'19L'
I2
I5
t(dp274
g26
I53
sg14
(lp275
sg16
I-2346872259468522873
sg17
Nsg18
(tsg28
g81
stbg92
g97
tp276
sg28
g190
sg59
I01
sbtp277
sg28
(dp278
sg59
I01
sbag9
(g10
g11
NtRp279
(dp280
g14
(lp281
sg16
I-591876982321809019
sg17
Nsg18
(g9
(g19
g11
NtRp282
(dp283
g14
(lp284
sg16
I-8034592131555334912
sg17
Nsg18
(g9
(g23
g11
NtRp285
((I0
S'1a7L'
I-1
I9
t(dp286
g26
I53
sg14
(lp287
sg16
I-2739517552269624854
sg17
Nsg18
(tsg28
g71
stbg9
(g10
g11
NtRp288
(dp289
g14
(lp290
sg16
I181588667250821151
sg17
Nsg18
(g9
(g19
g11
NtRp291
(dp292
g14
(lp293
sg16
I-2394642977485400363
sg17
Nsg18
(g9
(g23
g11
NtRp294
((I0
S'1L'
I0
I1
t(dp295
g26
I53
sg14
(lp296
sg16
I-8838321674194594742
sg17
Nsg18
(tsg28
g81
stbg9
(g91
g11
NtRp297
(dp298
g17
Nsg18
(g9
(g51
g11
NtRp299
(dp300
g14
(lp301
sg55
S'RAnkleRoll'
p302
sg17
Nsg18
(tsg28
g57
sg59
I01
sg16
I-7125428642080802448
sbtp303
sg14
(lp304
sg28
g96
sg16
I-8323168208340231679
sbg240
tp305
sg28
g106
sg59
I01
sbg9
(g19
g11
NtRp306
(dp307
g14
(lp308
sg16
I5778251423957588785
sg17
Nsg18
(g9
(g23
g11
NtRp309
((I0
S'1L'
I0
I1
t(dp310
g26
I53
sg14
(lp311
sg16
I-8838321674194594742
sg17
Nsg18
(tsg28
g81
stbg9
(g10
g11
NtRp312
(dp313
g14
(lp314
sg16
I-4802139514989196898
sg17
Nsg18
(g9
(g19
g11
NtRp315
(dp316
g14
(lp317
sg16
I2473421506529854810
sg17
Nsg18
(g9
(g23
g11
NtRp318
((I1
S'1L'
I0
I1
t(dp319
g26
I53
sg14
(lp320
sg16
I1652741725224645181
sg17
Nsg18
(tsg28
g81
stbg9
(g10
g11
NtRp321
(dp322
g14
(lp323
sg16
I-7782853548315581811
sg17
Nsg18
(g9
(g19
g11
NtRp324
(dp325
g14
(lp326
sg16
I-5898859845880460512
sg17
Nsg18
(g9
(g23
g11
NtRp327
((I0
S'1L'
I0
I1
t(dp328
g26
I53
sg14
(lp329
sg16
I-8838321674194594742
sg17
Nsg18
(tsg28
g81
stbg113
g49
g9
(g48
g11
NtRp330
(dp331
g17
Nsg18
(g299
tp332
sg14
(lp333
sg28
g62
sg16
I-3650190255256101794
sbtp334
sg28
g106
sg59
I01
sbg9
(g19
g11
NtRp335
(dp336
g14
(lp337
sg16
I-5242149265095428736
sg17
Nsg18
(g9
(g23
g11
NtRp338
((I0
S'1L'
I0
I1
t(dp339
g26
I53
sg14
(lp340
sg16
I-8838321674194594742
sg17
Nsg18
(tsg28
g81
stbg92
g330
g97
tp341
sg28
g106
sg59
I01
sbtp342
sg28
g119
sg59
I01
sbg153
tp343
sg28
g106
sg59
I01
sbg9
(g19
g11
NtRp344
(dp345
g14
(lp346
sg16
I3385195478338688487
sg17
Nsg18
(g9
(g23
g11
NtRp347
((I0
S'1L'
I0
I1
t(dp348
g26
I53
sg14
(lp349
sg16
I-8838321674194594742
sg17
Nsg18
(tsg28
g81
stbg9
(g10
g11
NtRp350
(dp351
g14
(lp352
sg16
I-2224096679742930448
sg17
Nsg18
(g9
(g19
g11
NtRp353
(dp354
g14
(lp355
sg16
I2522436134131301203
sg17
Nsg18
(g9
(g23
g11
NtRp356
((I0
S'1L'
I0
I1
t(dp357
g26
I53
sg14
(lp358
sg16
I-8838321674194594742
sg17
Nsg18
(tsg28
g81
stbg92
g113
g330
tp359
sg28
g106
sg59
I01
sbg9
(g19
g11
NtRp360
(dp361
g14
(lp362
sg16
I6835484368226043630
sg17
Nsg18
(g9
(g23
g11
NtRp363
((I1
S'1L'
I0
I1
t(dp364
g26
I53
sg14
(lp365
sg16
I1652741725224645181
sg17
Nsg18
(tsg28
g81
stbg49
g330
g97
tp366
sg28
g106
sg59
I01
sbtp367
sg28
g119
sg59
I01
sbg120
tp368
sg28
g106
sg59
I01
sbtp369
sg28
g119
sg59
I01
sbg159
tp370
sg28
g106
sg59
I01
sbtp371
sg28
g119
sg59
I01
sbg167
tp372
sg28
g190
sg59
I01
sbg9
(g19
g11
NtRp373
(dp374
g14
(lp375
sg16
I-6757756144853696936
sg17
Nsg18
(g9
(g23
g11
NtRp376
((I0
S'19L'
I1
I5
t(dp377
g26
I53
sg14
(lp378
sg16
I2580433242203447463
sg17
Nsg18
(tsg28
g81
stbg9
(g10
g11
NtRp379
(dp380
g14
(lp381
sg16
I-3788878884797276758
sg17
Nsg18
(g9
(g19
g11
NtRp382
(dp383
g14
(lp384
sg16
I-7890691231487434835
sg17
Nsg18
(g9
(g23
g11
NtRp385
((I1
S'1L'
I0
I1
t(dp386
g26
I53
sg14
(lp387
sg16
I1652741725224645181
sg17
Nsg18
(tsg28
g81
stbg312
g240
tp388
sg28
g106
sg59
I01
sbg9
(g19
g11
NtRp389
(dp390
g14
(lp391
sg16
I-17454100281035734
sg17
Nsg18
(g9
(g23
g11
NtRp392
((I0
S'1L'
I0
I1
t(dp393
g26
I53
sg14
(lp394
sg16
I-8838321674194594742
sg17
Nsg18
(tsg28
g81
stbg297
g159
tp395
sg28
g106
sg59
I01
sbtp396
sg28
g119
sg59
I01
sbg167
tp397
sg28
g190
sg59
I01
sbg9
(g19
g11
NtRp398
(dp399
g14
(lp400
sg16
I-4686136993666040371
sg17
Nsg18
(g9
(g23
g11
NtRp401
((I1
S'1a7L'
I-1
I9
t(dp402
g26
I53
sg14
(lp403
sg16
I-4798194589019843811
sg17
Nsg18
(tsg28
g71
stbg9
(g10
g11
NtRp404
(dp405
g14
(lp406
sg16
I-322630174776309581
sg17
Nsg18
(g9
(g19
g11
NtRp407
(dp408
g14
(lp409
sg16
I-5668086170062423906
sg17
Nsg18
(g9
(g23
g11
NtRp410
((I0
S'1L'
I0
I1
t(dp411
g26
I53
sg14
(lp412
sg16
I-8838321674194594742
sg17
Nsg18
(tsg28
g81
stbg321
g120
tp413
sg28
g106
sg59
I01
sbg9
(g19
g11
NtRp414
(dp415
g14
(lp416
sg16
I6809389617460121240
sg17
Nsg18
(g9
(g23
g11
NtRp417
((I0
S'1L'
I0
I1
t(dp418
g26
I53
sg14
(lp419
sg16
I-8838321674194594742
sg17
Nsg18
(tsg28
g81
stbg350
g153
tp420
sg28
g106
sg59
I01
sbtp421
sg28
g119
sg59
I01
sbg167
g222
tp422
sg28
g190
sg59
I01
sbg9
(g19
g11
NtRp423
(dp424
g14
(lp425
sg16
I405894300130032289
sg17
Nsg18
(g9
(g23
g11
NtRp426
((I0
S'19L'
I2
I5
t(dp427
g26
I53
sg14
(lp428
sg16
I-3718610978853045224
sg17
Nsg18
(tsg28
g81
stbg92
g113
g330
tp429
sg28
g190
sg59
I01
sbg9
(g19
g11
NtRp430
(dp431
g14
(lp432
sg16
I563910896583493480
sg17
Nsg18
(g9
(g23
g11
NtRp433
((I1
S'19L'
I2
I5
t(dp434
g26
I53
sg14
(lp435
sg16
I-2346872259468522873
sg17
Nsg18
(tsg28
g81
stbg49
g330
g97
tp436
sg28
g190
sg59
I01
sbg9
(g19
g11
NtRp437
(dp438
g14
(lp439
sg16
I984754342908034098
sg17
Nsg18
(g9
(g23
g11
NtRp440
((I0
S'19L'
I1
I5
t(dp441
g26
I53
sg14
(lp442
sg16
I2580433242203447463
sg17
Nsg18
(tsg28
g81
stbg404
g222
tp443
sg28
g190
sg59
I01
sbg9
(g19
g11
NtRp444
(dp445
g14
(lp446
sg16
I3951041701381161183
sg17
Nsg18
(g9
(g23
g11
NtRp447
((I0
S'cdccccccccccdL'
I-45
I52
t(dp448
g26
I53
sg14
(lp449
sg16
I-2031544583562847888
sg17
Nsg18
(tsg28
g81
stbg92
g330
tp450
sg28
g190
sg59
I01
sbg9
(g19
g11
NtRp451
(dp452
g14
(lp453
sg16
I8204634504592057313
sg17
Nsg18
(g9
(g23
g11
NtRp454
((I0
S'1a7L'
I-1
I9
t(dp455
g26
I53
sg14
(lp456
sg16
I-2739517552269624854
sg17
Nsg18
(tsg28
g71
stbg252
g379
tp457
sg28
g190
sg59
I01
sbtp458
sg28
g278
sg59
I01
sbag9
(g10
g11
NtRp459
(dp460
g14
(lp461
sg16
I8489388909666513066
sg17
Nsg18
(g9
(g19
g11
NtRp462
(dp463
g14
(lp464
sg16
I-9174211670612343757
sg17
Nsg18
(g9
(g23
g11
NtRp465
((I1
S'1a7L'
I-1
I9
t(dp466
g26
I53
sg14
(lp467
sg16
I-4798194589019843811
sg17
Nsg18
(tsg28
g71
stbg9
(g10
g11
NtRp468
(dp469
g14
(lp470
sg16
I3147017841727492541
sg17
Nsg18
(g9
(g19
g11
NtRp471
(dp472
g14
(lp473
sg16
I-179151381952944648
sg17
Nsg18
(g9
(g23
g11
NtRp474
((I0
S'1L'
I0
I1
t(dp475
g26
I53
sg14
(lp476
sg16
I-8838321674194594742
sg17
Nsg18
(tsg28
g81
stbg9
(g10
g11
NtRp477
(dp478
g14
(lp479
sg16
I8865864819885720016
sg17
Nsg18
(g9
(g19
g11
NtRp480
(dp481
g14
(lp482
sg16
I-4706671706631084043
sg17
Nsg18
(g9
(g23
g11
NtRp483
((I1
S'1L'
I0
I1
t(dp484
g26
I53
sg14
(lp485
sg16
I1652741725224645181
sg17
Nsg18
(tsg28
g81
stbg297
g49
g97
tp486
sg28
g106
sg59
I01
sbg9
(g19
g11
NtRp487
(dp488
g14
(lp489
sg16
I275519332423297576
sg17
Nsg18
(g9
(g23
g11
NtRp490
((I0
S'1L'
I0
I1
t(dp491
g26
I53
sg14
(lp492
sg16
I-8838321674194594742
sg17
Nsg18
(tsg28
g81
stbg92
g297
g113
tp493
sg28
g106
sg59
I01
sbtp494
sg28
g119
sg59
I01
sbg153
tp495
sg28
g106
sg59
I01
sbg9
(g19
g11
NtRp496
(dp497
g14
(lp498
sg16
I6559516068848125224
sg17
Nsg18
(g9
(g23
g11
NtRp499
((I0
S'1L'
I0
I1
t(dp500
g26
I53
sg14
(lp501
sg16
I-8838321674194594742
sg17
Nsg18
(tsg28
g81
stbg9
(g10
g11
NtRp502
(dp503
g14
(lp504
sg16
I1365392327128854027
sg17
Nsg18
(g9
(g19
g11
NtRp505
(dp506
g14
(lp507
sg16
I7471078702734194003
sg17
Nsg18
(g9
(g23
g11
NtRp508
((I0
S'1L'
I0
I1
t(dp509
g26
I53
sg14
(lp510
sg16
I-8838321674194594742
sg17
Nsg18
(tsg28
g81
stbg297
g113
g49
tp511
sg28
g106
sg59
I01
sbg9
(g19
g11
NtRp512
(dp513
g14
(lp514
sg16
I8104873777878750627
sg17
Nsg18
(g9
(g23
g11
NtRp515
((I0
S'1L'
I0
I1
t(dp516
g26
I53
sg14
(lp517
sg16
I-8838321674194594742
sg17
Nsg18
(tsg28
g81
stbg92
g297
g97
tp518
sg28
g106
sg59
I01
sbtp519
sg28
g119
sg59
I01
sbg120
tp520
sg28
g106
sg59
I01
sbtp521
sg28
g119
sg59
I01
sbg167
g222
tp522
sg28
g190
sg59
I01
sbg9
(g19
g11
NtRp523
(dp524
g14
(lp525
sg16
I-4253153090742873962
sg17
Nsg18
(g9
(g23
g11
NtRp526
((I0
S'1a7L'
I-1
I9
t(dp527
g26
I53
sg14
(lp528
sg16
I-2739517552269624854
sg17
Nsg18
(tsg28
g71
stbg9
(g10
g11
NtRp529
(dp530
g14
(lp531
sg16
I342603747553168425
sg17
Nsg18
(g9
(g19
g11
NtRp532
(dp533
g14
(lp534
sg16
I-327907797676642157
sg17
Nsg18
(g9
(g23
g11
NtRp535
((I0
S'1L'
I0
I1
t(dp536
g26
I53
sg14
(lp537
sg16
I-8838321674194594742
sg17
Nsg18
(tsg28
g81
stbg9
(g10
g11
NtRp538
(dp539
g14
(lp540
sg16
I-7548237533527151340
sg17
Nsg18
(g9
(g19
g11
NtRp541
(dp542
g14
(lp543
sg16
I1677479145591187940
sg17
Nsg18
(g9
(g23
g11
NtRp544
((I1
S'1L'
I0
I1
t(dp545
g26
I53
sg14
(lp546
sg16
I1652741725224645181
sg17
Nsg18
(tsg28
g81
stbg502
g153
tp547
sg28
g106
sg59
I01
sbg9
(g19
g11
NtRp548
(dp549
g14
(lp550
sg16
I3099578263300593351
sg17
Nsg18
(g9
(g23
g11
NtRp551
((I0
S'1L'
I0
I1
t(dp552
g26
I53
sg14
(lp553
sg16
I-8838321674194594742
sg17
Nsg18
(tsg28
g81
stbg477
g120
tp554
sg28
g106
sg59
I01
sbtp555
sg28
g119
sg59
I01
sbg159
tp556
sg28
g106
sg59
I01
sbg9
(g19
g11
NtRp557
(dp558
g14
(lp559
sg16
I59344110584892397
sg17
Nsg18
(g9
(g23
g11
NtRp560
((I1
S'1L'
I0
I1
t(dp561
g26
I53
sg14
(lp562
sg16
I1652741725224645181
sg17
Nsg18
(tsg28
g81
stbg330
g240
tp563
sg28
g106
sg59
I01
sbtp564
sg28
g119
sg59
I01
sbg167
tp565
sg28
g190
sg59
I01
sbg9
(g19
g11
NtRp566
(dp567
g14
(lp568
sg16
I-4130610163163382853
sg17
Nsg18
(g9
(g23
g11
NtRp569
((I1
S'19L'
I2
I5
t(dp570
g26
I53
sg14
(lp571
sg16
I-2346872259468522873
sg17
Nsg18
(tsg28
g81
stbg297
g49
g97
tp572
sg28
g190
sg59
I01
sbg9
(g19
g11
NtRp573
(dp574
g14
(lp575
sg16
I-3500638159329297106
sg17
Nsg18
(g9
(g23
g11
NtRp576
((I0
S'19L'
I1
I5
t(dp577
g26
I53
sg14
(lp578
sg16
I2580433242203447463
sg17
Nsg18
(tsg28
g81
stbg9
(g10
g11
NtRp579
(dp580
g14
(lp581
sg16
I994401936149822204
sg17
Nsg18
(g9
(g19
g11
NtRp582
(dp583
g14
(lp584
sg16
I-4332782819563979361
sg17
Nsg18
(g9
(g23
g11
NtRp585
((I1
S'1L'
I0
I1
t(dp586
g26
I53
sg14
(lp587
sg16
I1652741725224645181
sg17
Nsg18
(tsg28
g81
stbg538
g240
tp588
sg28
g106
sg59
I01
sbg9
(g19
g11
NtRp589
(dp590
g14
(lp591
sg16
I-2673052101732526026
sg17
Nsg18
(g9
(g23
g11
NtRp592
((I1
S'1L'
I0
I1
t(dp593
g26
I53
sg14
(lp594
sg16
I1652741725224645181
sg17
Nsg18
(tsg28
g81
stbg159
g330
tp595
sg28
g106
sg59
I01
sbtp596
sg28
g119
sg59
I01
sbg167
tp597
sg28
g190
sg59
I01
sbg9
(g19
g11
NtRp598
(dp599
g14
(lp600
sg16
I-464576517786412044
sg17
Nsg18
(g9
(g23
g11
NtRp601
((I0
S'19L'
I1
I5
t(dp602
g26
I53
sg14
(lp603
sg16
I2580433242203447463
sg17
Nsg18
(tsg28
g81
stbg468
g222
tp604
sg28
g190
sg59
I01
sbg9
(g19
g11
NtRp605
(dp606
g14
(lp607
sg16
I552476898296133408
sg17
Nsg18
(g9
(g23
g11
NtRp608
((I0
S'cdccccccccccdL'
I-45
I52
t(dp609
g26
I53
sg14
(lp610
sg16
I-2031544583562847888
sg17
Nsg18
(tsg28
g81
stbg92
g297
tp611
sg28
g190
sg59
I01
sbg9
(g19
g11
NtRp612
(dp613
g14
(lp614
sg16
I6378482664469415615
sg17
Nsg18
(g9
(g23
g11
NtRp615
((I0
S'1a7L'
I-1
I9
t(dp616
g26
I53
sg14
(lp617
sg16
I-2739517552269624854
sg17
Nsg18
(tsg28
g71
stbg252
g579
tp618
sg28
g190
sg59
I01
sbg9
(g19
g11
NtRp619
(dp620
g14
(lp621
sg16
I8105391505651946570
sg17
Nsg18
(g9
(g23
g11
NtRp622
((I0
S'19L'
I2
I5
t(dp623
g26
I53
sg14
(lp624
sg16
I-3718610978853045224
sg17
Nsg18
(tsg28
g81
stbg92
g297
g113
tp625
sg28
g190
sg59
I01
sbtp626
sg28
g278
sg59
I01
sbag9
(g23
g11
NtRp627
((I0
S'1L'
I0
I1
t(dp628
g26
I53
sg14
(lp629
sg16
Nsg17
Nsg18
(tsg28
g71
stbatbsS'RHipPitch'
p630
g3
(g4
(I0
tS'b'
tRp631
(I1
(I4
I1
tg7
I00
(lp632
g9
(g10
g11
NtRp633
(dp634
g14
(lp635
sg16
I-3289364867616765960
sg17
Nsg18
(g20
g9
(g19
g11
NtRp636
(dp637
g14
(lp638
sg16
I-5602066592115065747
sg17
Nsg18
(g9
(g23
g11
NtRp639
((I1
S'19L'
I2
I5
t(dp640
g26
I53
sg14
(lp641
sg16
I-2346872259468522873
sg17
Nsg18
(tsg28
g71
stbg113
g49
tp642
sg28
g190
sg59
I01
sbg9
(g19
g11
NtRp643
(dp644
g14
(lp645
sg16
I3960466736704400709
sg17
Nsg18
(g9
(g23
g11
NtRp646
((I1
S'19L'
I2
I5
t(dp647
g26
I53
sg14
(lp648
sg16
I-2346872259468522873
sg17
Nsg18
(tsg28
g71
stbg92
g97
tp649
sg28
g190
sg59
I01
sbtp650
sg28
g278
sg59
I01
sbag9
(g10
g11
NtRp651
(dp652
g14
(lp653
sg16
I3975293090895690487
sg17
Nsg18
(g9
(g19
g11
NtRp654
(dp655
g14
(lp656
sg16
I405894300130032289
sg17
Nsg18
(g9
(g23
g11
NtRp657
((I0
S'19L'
I2
I5
t(dp658
g26
I53
sg14
(lp659
sg16
I-3718610978853045224
sg17
Nsg18
(tsg28
g71
stbg92
g113
g330
tp660
sg28
g190
sg59
I01
sbg9
(g19
g11
NtRp661
(dp662
g14
(lp663
sg16
I563910896583493480
sg17
Nsg18
(g9
(g23
g11
NtRp664
((I1
S'19L'
I2
I5
t(dp665
g26
I53
sg14
(lp666
sg16
I-2346872259468522873
sg17
Nsg18
(tsg28
g71
stbg49
g330
g97
tp667
sg28
g190
sg59
I01
sbg9
(g19
g11
NtRp668
(dp669
g14
(lp670
sg16
I3951041701381161183
sg17
Nsg18
(g9
(g23
g11
NtRp671
((I0
S'cdccccccccccdL'
I-45
I52
t(dp672
g26
I53
sg14
(lp673
sg16
I-2031544583562847888
sg17
Nsg18
(tsg28
g71
stbg92
g330
tp674
sg28
g190
sg59
I01
sbtp675
sg28
g278
sg59
I01
sbag9
(g10
g11
NtRp676
(dp677
g14
(lp678
sg16
I-7738381707163818360
sg17
Nsg18
(g9
(g19
g11
NtRp679
(dp680
g14
(lp681
sg16
I-4130610163163382853
sg17
Nsg18
(g9
(g23
g11
NtRp682
((I1
S'19L'
I2
I5
t(dp683
g26
I53
sg14
(lp684
sg16
I-2346872259468522873
sg17
Nsg18
(tsg28
g71
stbg297
g49
g97
tp685
sg28
g190
sg59
I01
sbg9
(g19
g11
NtRp686
(dp687
g14
(lp688
sg16
I552476898296133408
sg17
Nsg18
(g9
(g23
g11
NtRp689
((I0
S'cdccccccccccdL'
I-45
I52
t(dp690
g26
I53
sg14
(lp691
sg16
I-2031544583562847888
sg17
Nsg18
(tsg28
g71
stbg92
g297
tp692
sg28
g190
sg59
I01
sbg9
(g19
g11
NtRp693
(dp694
g14
(lp695
sg16
I8105391505651946570
sg17
Nsg18
(g9
(g23
g11
NtRp696
((I0
S'19L'
I2
I5
t(dp697
g26
I53
sg14
(lp698
sg16
I-3718610978853045224
sg17
Nsg18
(tsg28
g71
stbg92
g297
g113
tp699
sg28
g190
sg59
I01
sbtp700
sg28
g278
sg59
I01
sbag9
(g23
g11
NtRp701
((I0
S'1L'
I0
I1
t(dp702
g26
I53
sg14
(lp703
sg16
Nsg17
Nsg18
(tsg28
g71
stbatbsS'RElbowYaw'
p704
g3
(g4
(I0
tS'b'
tRp705
(I1
(I4
I1
tg7
I00
(lp706
g9
(g10
g11
NtRp707
(dp708
g14
(lp709
sg16
I-5903404470174616666
sg17
Nsg18
(g20
g9
(g19
g11
NtRp710
(dp711
g14
(lp712
sg16
I-7570417696432241723
sg17
Nsg18
(g9
(g23
g11
NtRp713
((I0
S'b9L'
I0
I8
t(dp714
g26
I53
sg14
(lp715
sg16
I-3381591462083460617
sg17
Nsg18
(tsg28
g71
stbg72
g159
g167
tp716
sg28
g190
sg59
I01
sbg9
(g19
g11
NtRp717
(dp718
g14
(lp719
sg16
I-5602066592115065747
sg17
Nsg18
(g9
(g23
g11
NtRp720
((I1
S'19L'
I2
I5
t(dp721
g26
I53
sg14
(lp722
sg16
I-2346872259468522873
sg17
Nsg18
(tsg28
g71
stbg113
g49
tp723
sg28
g190
sg59
I01
sbg9
(g19
g11
NtRp724
(dp725
g14
(lp726
sg16
I-4822886549608383893
sg17
Nsg18
(g9
(g23
g11
NtRp727
((I1
S'fL'
I0
I4
t(dp728
g26
I53
sg14
(lp729
sg16
I3752288974540287166
sg17
Nsg18
(tsg28
g71
stbg9
(g10
g11
NtRp730
(dp731
g14
(lp732
sg16
I6293599218811486618
sg17
Nsg18
(g9
(g19
g11
NtRp733
(dp734
g14
(lp735
sg16
I-7582397087986441604
sg17
Nsg18
(g9
(g23
g11
NtRp736
((I1
S'1L'
I0
I1
t(dp737
g26
I53
sg14
(lp738
sg16
I1652741725224645181
sg17
Nsg18
(tsg28
g71
stbg9
(g10
g11
NtRp739
(dp740
g14
(lp741
sg16
I-3889398119881661334
sg17
Nsg18
(g9
(g19
g11
NtRp742
(dp743
g14
(lp744
sg16
I-7804276652697045152
sg17
Nsg18
(g9
(g23
g11
NtRp745
((I0
S'1L'
I0
I1
t(dp746
g26
I53
sg14
(lp747
sg16
I-8838321674194594742
sg17
Nsg18
(tsg28
g71
stbg9
(g10
g11
NtRp748
(dp749
g14
(lp750
sg16
I-5019669510191283613
sg17
Nsg18
(g9
(g19
g11
NtRp751
(dp752
g14
(lp753
sg16
I6382970936317910455
sg17
Nsg18
(g9
(g23
g11
NtRp754
((I1
S'1L'
I0
I1
t(dp755
g26
I53
sg14
(lp756
sg16
I1652741725224645181
sg17
Nsg18
(tsg28
g71
stbg92
g97
tp757
sg28
g190
sg59
I01
sbg9
(g19
g11
NtRp758
(dp759
g14
(lp760
sg16
I9157811864455872575
sg17
Nsg18
(g9
(g23
g11
NtRp761
((I1
S'1L'
I0
I1
t(dp762
g26
I53
sg14
(lp763
sg16
I1652741725224645181
sg17
Nsg18
(tsg28
g71
stbg113
g49
tp764
sg28
g190
sg59
I01
sbtp765
sg28
g278
sg59
I01
sbg120
tp766
sg28
g190
sg59
I01
sbg9
(g19
g11
NtRp767
(dp768
g14
(lp769
sg16
I-5864072710691846331
sg17
Nsg18
(g9
(g23
g11
NtRp770
((I1
S'1L'
I0
I1
t(dp771
g26
I53
sg14
(lp772
sg16
I1652741725224645181
sg17
Nsg18
(tsg28
g71
stbg9
(g10
g11
NtRp773
(dp774
g14
(lp775
sg16
I6145302372893004550
sg17
Nsg18
(g9
(g19
g11
NtRp776
(dp777
g14
(lp778
sg16
I-8884415907403323809
sg17
Nsg18
(g9
(g23
g11
NtRp779
((I0
S'1L'
I0
I1
t(dp780
g26
I53
sg14
(lp781
sg16
I-8838321674194594742
sg17
Nsg18
(tsg28
g71
stbg92
g113
tp782
sg28
g190
sg59
I01
sbg9
(g19
g11
NtRp783
(dp784
g14
(lp785
sg16
I-3153936104822300260
sg17
Nsg18
(g9
(g23
g11
NtRp786
((I1
S'1L'
I0
I1
t(dp787
g26
I53
sg14
(lp788
sg16
I1652741725224645181
sg17
Nsg18
(tsg28
g71
stbg49
g97
tp789
sg28
g190
sg59
I01
sbtp790
sg28
g278
sg59
I01
sbg153
tp791
sg28
g190
sg59
I01
sbtp792
sg28
g278
sg59
I01
sbg167
g240
tp793
sg28
g190
sg59
I01
sbg9
(g19
g11
NtRp794
(dp795
g14
(lp796
sg16
I7971259284193910313
sg17
Nsg18
(g9
(g23
g11
NtRp797
((I0
S'1L'
I0
I1
t(dp798
g26
I53
sg14
(lp799
sg16
I-8838321674194594742
sg17
Nsg18
(tsg28
g71
stbg9
(g10
g11
NtRp800
(dp801
g14
(lp802
sg16
I5672355531035731409
sg17
Nsg18
(g9
(g19
g11
NtRp803
(dp804
g14
(lp805
sg16
I-7458618630199251681
sg17
Nsg18
(g9
(g23
g11
NtRp806
((I0
S'1L'
I0
I1
t(dp807
g26
I53
sg14
(lp808
sg16
I-8838321674194594742
sg17
Nsg18
(tsg28
g71
stbg748
g153
tp809
sg28
g190
sg59
I01
sbg9
(g19
g11
NtRp810
(dp811
g14
(lp812
sg16
I6146949395220637689
sg17
Nsg18
(g9
(g23
g11
NtRp813
((I0
S'1L'
I0
I1
t(dp814
g26
I53
sg14
(lp815
sg16
I-8838321674194594742
sg17
Nsg18
(tsg28
g71
stbg773
g120
tp816
sg28
g190
sg59
I01
sbtp817
sg28
g278
sg59
I01
sbg222
tp818
sg28
g190
sg59
I01
sbtp819
sg28
g278
sg59
I01
sbg9
(g91
g11
NtRp820
(dp821
g17
Nsg18
(g9
(g51
g11
NtRp822
(dp823
g14
(lp824
sg55
S'RShoulderRoll'
p825
sg17
Nsg18
(tsg28
(dp826
g58
I00
ssg59
I01
sg16
I-4548477932126297682
sbtp827
sg14
(lp828
sg28
(dp829
sg16
I-2448372321317376677
sbtp830
sg28
g190
sg59
I01
sbg9
(g19
g11
NtRp831
(dp832
g14
(lp833
sg16
I-4213444343167056070
sg17
Nsg18
(g9
(g23
g11
NtRp834
((I1
S'fL'
I0
I4
t(dp835
g26
I53
sg14
(lp836
sg16
I3752288974540287166
sg17
Nsg18
(tsg28
g71
stbg9
(g10
g11
NtRp837
(dp838
g14
(lp839
sg16
I3133744771024650568
sg17
Nsg18
(g9
(g19
g11
NtRp840
(dp841
g14
(lp842
sg16
I5894004469590462022
sg17
Nsg18
(g9
(g23
g11
NtRp843
((I0
S'1L'
I0
I1
t(dp844
g26
I53
sg14
(lp845
sg16
I-8838321674194594742
sg17
Nsg18
(tsg28
g71
stbg9
(g10
g11
NtRp846
(dp847
g14
(lp848
sg16
I-5163434044630338260
sg17
Nsg18
(g9
(g19
g11
NtRp849
(dp850
g14
(lp851
sg16
I-5313432737279320479
sg17
Nsg18
(g9
(g23
g11
NtRp852
((I0
S'1L'
I0
I1
t(dp853
g26
I53
sg14
(lp854
sg16
I-8838321674194594742
sg17
Nsg18
(tsg28
g71
stbg739
g159
g222
tp855
sg28
g190
sg59
I01
sbg9
(g19
g11
NtRp856
(dp857
g14
(lp858
sg16
I2436928733112113409
sg17
Nsg18
(g9
(g23
g11
NtRp859
((I0
S'1L'
I0
I1
t(dp860
g26
I53
sg14
(lp861
sg16
I-8838321674194594742
sg17
Nsg18
(tsg28
g71
stbg9
(g251
g11
NtRp862
(dp863
g14
(lp864
sg17
Nsg18
(g167
g256
tp865
sg28
g268
sg59
I01
sg16
I8149098662168283486
sbg800
tp866
sg28
g190
sg59
I01
sbg9
(g19
g11
NtRp867
(dp868
g14
(lp869
sg16
I5904141386928562161
sg17
Nsg18
(g9
(g23
g11
NtRp870
((I0
S'1L'
I0
I1
t(dp871
g26
I53
sg14
(lp872
sg16
I-8838321674194594742
sg17
Nsg18
(tsg28
g71
stbg739
g167
g240
g222
tp873
sg28
g190
sg59
I01
sbtp874
sg28
g278
sg59
I01
sbg9
(g48
g11
NtRp875
(dp876
g17
Nsg18
(g9
(g51
g11
NtRp877
(dp878
g14
(lp879
sg55
S'RShoulderPitch'
p880
sg17
Nsg18
(tsg28
g826
sg59
I01
sg16
I-7027358066700686790
sbtp881
sg14
(lp882
sg28
(dp883
sg16
I-5494723403704049668
sbtp884
sg28
g190
sg59
I01
sbg9
(g19
g11
NtRp885
(dp886
g14
(lp887
sg16
I7693435433409003261
sg17
Nsg18
(g9
(g23
g11
NtRp888
((I0
S'1L'
I0
I1
t(dp889
g26
I53
sg14
(lp890
sg16
I-8838321674194594742
sg17
Nsg18
(tsg28
g71
stbg9
(g10
g11
NtRp891
(dp892
g14
(lp893
sg16
I8785815566670072620
sg17
Nsg18
(g9
(g19
g11
NtRp894
(dp895
g14
(lp896
sg16
I-2439626765097127496
sg17
Nsg18
(g9
(g23
g11
NtRp897
((I1
S'1L'
I0
I1
t(dp898
g26
I53
sg14
(lp899
sg16
I1652741725224645181
sg17
Nsg18
(tsg28
g71
stbg252
g739
g240
tp900
sg28
g190
sg59
I01
sbg9
(g19
g11
NtRp901
(dp902
g14
(lp903
sg16
I-920822808791688282
sg17
Nsg18
(g9
(g23
g11
NtRp904
((I0
S'1L'
I0
I1
t(dp905
g26
I53
sg14
(lp906
sg16
I-8838321674194594742
sg17
Nsg18
(tsg28
g71
stbg739
g159
g167
tp907
sg28
g190
sg59
I01
sbg9
(g19
g11
NtRp908
(dp909
g14
(lp910
sg16
I4431430081969365079
sg17
Nsg18
(g9
(g23
g11
NtRp911
((I1
S'1L'
I0
I1
t(dp912
g26
I53
sg14
(lp913
sg16
I1652741725224645181
sg17
Nsg18
(tsg28
g71
stbg800
g167
g222
tp914
sg28
g190
sg59
I01
sbtp915
sg28
g278
sg59
I01
sbg9
(g91
g11
NtRp916
(dp917
g17
Nsg18
(g877
tp918
sg14
(lp919
sg28
g829
sg16
I-4888804872437199841
sbtp920
sg28
g190
sg59
I01
sbtp921
sg28
g278
sg59
I01
sbg9
(g48
g11
NtRp922
(dp923
g17
Nsg18
(g822
tp924
sg14
(lp925
sg28
g883
sg16
I4473227559389738040
sbtp926
sg28
g190
sg59
I01
sbg9
(g19
g11
NtRp927
(dp928
g14
(lp929
sg16
I-300626685300637712
sg17
Nsg18
(g9
(g23
g11
NtRp930
((I1
S'b9L'
I0
I8
t(dp931
g26
I53
sg14
(lp932
sg16
I-854491074346194472
sg17
Nsg18
(tsg28
g71
stbg204
g167
g222
tp933
sg28
g190
sg59
I01
sbg9
(g19
g11
NtRp934
(dp935
g14
(lp936
sg16
I2591201160001217103
sg17
Nsg18
(g9
(g23
g11
NtRp937
((I1
S'69L'
I0
I7
t(dp938
g26
I53
sg14
(lp939
sg16
I60220716336317631
sg17
Nsg18
(tsg28
g71
stbg891
g875
tp940
sg28
g190
sg59
I01
sbg9
(g19
g11
NtRp941
(dp942
g14
(lp943
sg16
I2919721447578170342
sg17
Nsg18
(g9
(g23
g11
NtRp944
((I0
S'3L'
I4
I2
t(dp945
g26
I53
sg14
(lp946
sg16
I8290848331410560139
sg17
Nsg18
(tsg28
g71
stbg72
g167
g240
tp947
sg28
g190
sg59
I01
sbg9
(g19
g11
NtRp948
(dp949
g14
(lp950
sg16
I3960466736704400709
sg17
Nsg18
(g9
(g23
g11
NtRp951
((I1
S'19L'
I2
I5
t(dp952
g26
I53
sg14
(lp953
sg16
I-2346872259468522873
sg17
Nsg18
(tsg28
g71
stbg92
g97
tp954
sg28
g190
sg59
I01
sbg9
(g19
g11
NtRp955
(dp956
g14
(lp957
sg16
I4932250873753322079
sg17
Nsg18
(g9
(g23
g11
NtRp958
((I1
S'3L'
I4
I2
t(dp959
g26
I53
sg14
(lp960
sg16
I2669681814860609964
sg17
Nsg18
(tsg28
g71
stbg204
g222
tp961
sg28
g190
sg59
I01
sbg9
(g19
g11
NtRp962
(dp963
g14
(lp964
sg16
I5571403120238097903
sg17
Nsg18
(g9
(g23
g11
NtRp965
((I0
S'69L'
I0
I7
t(dp966
g26
I53
sg14
(lp967
sg16
I2601078411346328320
sg17
Nsg18
(tsg28
g71
stbg846
g916
tp968
sg28
g190
sg59
I01
sbg9
(g19
g11
NtRp969
(dp970
g14
(lp971
sg16
I8312396885552945895
sg17
Nsg18
(g9
(g23
g11
NtRp972
((I1
S'b9L'
I0
I8
t(dp973
g26
I53
sg14
(lp974
sg16
I-854491074346194472
sg17
Nsg18
(tsg28
g71
stbg252
g72
g240
tp975
sg28
g190
sg59
I01
sbtp976
sg28
g278
sg59
I01
sbag9
(g10
g11
NtRp977
(dp978
g14
(lp979
sg16
I6945503933659597046
sg17
Nsg18
(g9
(g19
g11
NtRp980
(dp981
g14
(lp982
sg16
I-3643561983126171622
sg17
Nsg18
(g9
(g23
g11
NtRp983
((I0
S'69L'
I0
I7
t(dp984
g26
I53
sg14
(lp985
sg16
I2601078411346328320
sg17
Nsg18
(tsg28
g71
stbg9
(g10
g11
NtRp986
(dp987
g14
(lp988
sg16
I7951906790276708637
sg17
Nsg18
(g9
(g19
g11
NtRp989
(dp990
g14
(lp991
sg16
I1212699421549564083
sg17
Nsg18
(g9
(g23
g11
NtRp992
((I0
S'1L'
I0
I1
t(dp993
g26
I53
sg14
(lp994
sg16
I-8838321674194594742
sg17
Nsg18
(tsg28
g71
stbg862
g9
(g10
g11
NtRp995
(dp996
g14
(lp997
sg16
I-322630174776309581
sg17
Nsg18
(g9
(g19
g11
NtRp998
(dp999
g14
(lp1000
sg16
I-5668086170062423906
sg17
Nsg18
(g9
(g23
g11
NtRp1001
((I0
S'1L'
I0
I1
t(dp1002
g26
I53
sg14
(lp1003
sg16
I-8838321674194594742
sg17
Nsg18
(tsg28
g71
stbg9
(g10
g11
NtRp1004
(dp1005
g14
(lp1006
sg16
I-7782853548315581811
sg17
Nsg18
(g9
(g19
g11
NtRp1007
(dp1008
g14
(lp1009
sg16
I-5898859845880460512
sg17
Nsg18
(g9
(g23
g11
NtRp1010
((I0
S'1L'
I0
I1
t(dp1011
g26
I53
sg14
(lp1012
sg16
I-8838321674194594742
sg17
Nsg18
(tsg28
g71
stbg113
g49
g330
tp1013
sg28
g190
sg59
I01
sbg9
(g19
g11
NtRp1014
(dp1015
g14
(lp1016
sg16
I-5242149265095428736
sg17
Nsg18
(g9
(g23
g11
NtRp1017
((I0
S'1L'
I0
I1
t(dp1018
g26
I53
sg14
(lp1019
sg16
I-8838321674194594742
sg17
Nsg18
(tsg28
g71
stbg92
g330
g97
tp1020
sg28
g190
sg59
I01
sbtp1021
sg28
g278
sg59
I01
sbg120
tp1022
sg28
g190
sg59
I01
sbg9
(g19
g11
NtRp1023
(dp1024
g14
(lp1025
sg16
I6809389617460121240
sg17
Nsg18
(g9
(g23
g11
NtRp1026
((I0
S'1L'
I0
I1
t(dp1027
g26
I53
sg14
(lp1028
sg16
I-8838321674194594742
sg17
Nsg18
(tsg28
g71
stbg9
(g10
g11
NtRp1029
(dp1030
g14
(lp1031
sg16
I-2224096679742930448
sg17
Nsg18
(g9
(g19
g11
NtRp1032
(dp1033
g14
(lp1034
sg16
I2522436134131301203
sg17
Nsg18
(g9
(g23
g11
NtRp1035
((I0
S'1L'
I0
I1
t(dp1036
g26
I53
sg14
(lp1037
sg16
I-8838321674194594742
sg17
Nsg18
(tsg28
g71
stbg92
g113
g330
tp1038
sg28
g190
sg59
I01
sbg9
(g19
g11
NtRp1039
(dp1040
g14
(lp1041
sg16
I6835484368226043630
sg17
Nsg18
(g9
(g23
g11
NtRp1042
((I1
S'1L'
I0
I1
t(dp1043
g26
I53
sg14
(lp1044
sg16
I1652741725224645181
sg17
Nsg18
(tsg28
g71
stbg49
g330
g97
tp1045
sg28
g190
sg59
I01
sbtp1046
sg28
g278
sg59
I01
sbg153
tp1047
sg28
g190
sg59
I01
sbtp1048
sg28
g278
sg59
I01
sbtp1049
sg28
g190
sg59
I01
sbg9
(g19
g11
NtRp1050
(dp1051
g14
(lp1052
sg16
I2402072332995672128
sg17
Nsg18
(g9
(g23
g11
NtRp1053
((I1
S'1L'
I0
I1
t(dp1054
g26
I53
sg14
(lp1055
sg16
I1652741725224645181
sg17
Nsg18
(tsg28
g71
stbg9
(g10
g11
NtRp1056
(dp1057
g14
(lp1058
sg16
I-3788878884797276758
sg17
Nsg18
(g9
(g19
g11
NtRp1059
(dp1060
g14
(lp1061
sg16
I-7890691231487434835
sg17
Nsg18
(g9
(g23
g11
NtRp1062
((I1
S'1L'
I0
I1
t(dp1063
g26
I53
sg14
(lp1064
sg16
I1652741725224645181
sg17
Nsg18
(tsg28
g71
stbg9
(g10
g11
NtRp1065
(dp1066
g14
(lp1067
sg16
I-4802139514989196898
sg17
Nsg18
(g9
(g19
g11
NtRp1068
(dp1069
g14
(lp1070
sg16
I2473421506529854810
sg17
Nsg18
(g9
(g23
g11
NtRp1071
((I1
S'1L'
I0
I1
t(dp1072
g26
I53
sg14
(lp1073
sg16
I1652741725224645181
sg17
Nsg18
(tsg28
g71
stbg1004
g153
tp1074
sg28
g190
sg59
I01
sbg9
(g19
g11
NtRp1075
(dp1076
g14
(lp1077
sg16
I3385195478338688487
sg17
Nsg18
(g9
(g23
g11
NtRp1078
((I0
S'1L'
I0
I1
t(dp1079
g26
I53
sg14
(lp1080
sg16
I-8838321674194594742
sg17
Nsg18
(tsg28
g71
stbg1029
g120
tp1081
sg28
g190
sg59
I01
sbtp1082
sg28
g278
sg59
I01
sbg240
tp1083
sg28
g190
sg59
I01
sbg9
(g19
g11
NtRp1084
(dp1085
g14
(lp1086
sg16
I-17454100281035734
sg17
Nsg18
(g9
(g23
g11
NtRp1087
((I0
S'1L'
I0
I1
t(dp1088
g26
I53
sg14
(lp1089
sg16
I-8838321674194594742
sg17
Nsg18
(tsg28
g71
stbg297
g159
tp1090
sg28
g190
sg59
I01
sbtp1091
sg28
g278
sg59
I01
sbg167
g222
tp1092
sg28
g190
sg59
I01
sbg9
(g19
g11
NtRp1093
(dp1094
g14
(lp1095
sg16
I6418210172823054871
sg17
Nsg18
(g9
(g23
g11
NtRp1096
((I0
S'1L'
I0
I1
t(dp1097
g26
I53
sg14
(lp1098
sg16
I-8838321674194594742
sg17
Nsg18
(tsg28
g71
stbg9
(g10
g11
NtRp1099
(dp1100
g14
(lp1101
sg16
I181588667250821151
sg17
Nsg18
(g9
(g19
g11
NtRp1102
(dp1103
g14
(lp1104
sg16
I-2394642977485400363
sg17
Nsg18
(g9
(g23
g11
NtRp1105
((I0
S'1L'
I0
I1
t(dp1106
g26
I53
sg14
(lp1107
sg16
I-8838321674194594742
sg17
Nsg18
(tsg28
g71
stbg297
g240
tp1108
sg28
g190
sg59
I01
sbg9
(g19
g11
NtRp1109
(dp1110
g14
(lp1111
sg16
I5778251423957588785
sg17
Nsg18
(g9
(g23
g11
NtRp1112
((I0
S'1L'
I0
I1
t(dp1113
g26
I53
sg14
(lp1114
sg16
I-8838321674194594742
sg17
Nsg18
(tsg28
g71
stbg1065
g159
tp1115
sg28
g190
sg59
I01
sbtp1116
sg28
g278
sg59
I01
sbg222
tp1117
sg28
g190
sg59
I01
sbtp1118
sg28
g278
sg59
I01
sbg916
tp1119
sg28
g190
sg59
I01
sbg9
(g19
g11
NtRp1120
(dp1121
g14
(lp1122
sg16
I-2995748627625413259
sg17
Nsg18
(g9
(g23
g11
NtRp1123
((I1
S'3L'
I4
I2
t(dp1124
g26
I53
sg14
(lp1125
sg16
I2669681814860609964
sg17
Nsg18
(tsg28
g71
stbg404
g222
tp1126
sg28
g190
sg59
I01
sbg9
(g19
g11
NtRp1127
(dp1128
g14
(lp1129
sg16
I405894300130032289
sg17
Nsg18
(g9
(g23
g11
NtRp1130
((I0
S'19L'
I2
I5
t(dp1131
g26
I53
sg14
(lp1132
sg16
I-3718610978853045224
sg17
Nsg18
(tsg28
g71
stbg92
g113
g330
tp1133
sg28
g190
sg59
I01
sbg9
(g19
g11
NtRp1134
(dp1135
g14
(lp1136
sg16
I563910896583493480
sg17
Nsg18
(g9
(g23
g11
NtRp1137
((I1
S'19L'
I2
I5
t(dp1138
g26
I53
sg14
(lp1139
sg16
I-2346872259468522873
sg17
Nsg18
(tsg28
g71
stbg49
g330
g97
tp1140
sg28
g190
sg59
I01
sbg9
(g19
g11
NtRp1141
(dp1142
g14
(lp1143
sg16
I3823732687053827176
sg17
Nsg18
(g9
(g23
g11
NtRp1144
((I1
S'fL'
I0
I4
t(dp1145
g26
I53
sg14
(lp1146
sg16
I3752288974540287166
sg17
Nsg18
(tsg28
g71
stbg9
(g10
g11
NtRp1147
(dp1148
g14
(lp1149
sg16
I5027894378748980221
sg17
Nsg18
(g9
(g19
g11
NtRp1150
(dp1151
g14
(lp1152
sg16
I-4788109733404412653
sg17
Nsg18
(g9
(g23
g11
NtRp1153
((I0
S'1L'
I0
I1
t(dp1154
g26
I53
sg14
(lp1155
sg16
I-8838321674194594742
sg17
Nsg18
(tsg28
g71
stbg995
g222
tp1156
sg28
g190
sg59
I01
sbg9
(g19
g11
NtRp1157
(dp1158
g14
(lp1159
sg16
I5491431269909302753
sg17
Nsg18
(g9
(g23
g11
NtRp1160
((I0
S'1L'
I0
I1
t(dp1161
g26
I53
sg14
(lp1162
sg16
I-8838321674194594742
sg17
Nsg18
(tsg28
g71
stbg1056
g167
tp1163
sg28
g190
sg59
I01
sbtp1164
sg28
g278
sg59
I01
sbg820
tp1165
sg28
g190
sg59
I01
sbg9
(g19
g11
NtRp1166
(dp1167
g14
(lp1168
sg16
I3951041701381161183
sg17
Nsg18
(g9
(g23
g11
NtRp1169
((I0
S'cdccccccccccdL'
I-45
I52
t(dp1170
g26
I53
sg14
(lp1171
sg16
I-2031544583562847888
sg17
Nsg18
(tsg28
g71
stbg92
g330
tp1172
sg28
g190
sg59
I01
sbg9
(g19
g11
NtRp1173
(dp1174
g14
(lp1175
sg16
I5604670137009848873
sg17
Nsg18
(g9
(g23
g11
NtRp1176
((I0
S'b9L'
I0
I8
t(dp1177
g26
I53
sg14
(lp1178
sg16
I-3381591462083460617
sg17
Nsg18
(tsg28
g71
stbg288
g167
tp1179
sg28
g190
sg59
I01
sbg9
(g19
g11
NtRp1180
(dp1181
g14
(lp1182
sg16
I6822248806197357551
sg17
Nsg18
(g9
(g23
g11
NtRp1183
((I1
S'3L'
I4
I2
t(dp1184
g26
I53
sg14
(lp1185
sg16
I2669681814860609964
sg17
Nsg18
(tsg28
g71
stbg379
g167
tp1186
sg28
g190
sg59
I01
sbg9
(g19
g11
NtRp1187
(dp1188
g14
(lp1189
sg16
I6891304737471354842
sg17
Nsg18
(g9
(g23
g11
NtRp1190
((I1
S'b9L'
I0
I8
t(dp1191
g26
I53
sg14
(lp1192
sg16
I-854491074346194472
sg17
Nsg18
(tsg28
g71
stbg404
g167
g222
tp1193
sg28
g190
sg59
I01
sbg9
(g19
g11
NtRp1194
(dp1195
g14
(lp1196
sg16
I7058460574163046910
sg17
Nsg18
(g9
(g23
g11
NtRp1197
((I1
S'69L'
I0
I7
t(dp1198
g26
I53
sg14
(lp1199
sg16
I60220716336317631
sg17
Nsg18
(tsg28
g71
stbg9
(g10
g11
NtRp1200
(dp1201
g14
(lp1202
sg16
I-1702932513385733023
sg17
Nsg18
(g9
(g19
g11
NtRp1203
(dp1204
g14
(lp1205
sg16
I-2473258567583538815
sg17
Nsg18
(g9
(g23
g11
NtRp1206
((I0
S'1L'
I0
I1
t(dp1207
g26
I53
sg14
(lp1208
sg16
I-8838321674194594742
sg17
Nsg18
(tsg28
g71
stbg252
g1056
tp1209
sg28
g190
sg59
I01
sbg9
(g19
g11
NtRp1210
(dp1211
g14
(lp1212
sg16
I4519848246917967149
sg17
Nsg18
(g9
(g23
g11
NtRp1213
((I1
S'1L'
I0
I1
t(dp1214
g26
I53
sg14
(lp1215
sg16
I1652741725224645181
sg17
Nsg18
(tsg28
g71
stbg995
g167
g222
tp1216
sg28
g190
sg59
I01
sbg9
(g19
g11
NtRp1217
(dp1218
g14
(lp1219
sg16
I8691327473290159328
sg17
Nsg18
(g9
(g23
g11
NtRp1220
((I0
S'1L'
I0
I1
t(dp1221
g26
I53
sg14
(lp1222
sg16
I-8838321674194594742
sg17
Nsg18
(tsg28
g71
stbg1099
g167
tp1223
sg28
g190
sg59
I01
sbtp1224
sg28
g278
sg59
I01
sbg875
tp1225
sg28
g190
sg59
I01
sbg9
(g19
g11
NtRp1226
(dp1227
g14
(lp1228
sg16
I7118835016342507136
sg17
Nsg18
(g9
(g23
g11
NtRp1229
((I0
S'b9L'
I0
I8
t(dp1230
g26
I53
sg14
(lp1231
sg16
I-3381591462083460617
sg17
Nsg18
(tsg28
g71
stbg252
g379
tp1232
sg28
g190
sg59
I01
sbg9
(g19
g11
NtRp1233
(dp1234
g14
(lp1235
sg16
I7695763747669860440
sg17
Nsg18
(g9
(g23
g11
NtRp1236
((I1
S'fL'
I0
I4
t(dp1237
g26
I53
sg14
(lp1238
sg16
I3752288974540287166
sg17
Nsg18
(tsg28
g71
stbg9
(g10
g11
NtRp1239
(dp1240
g14
(lp1241
sg16
I8402773952249409522
sg17
Nsg18
(g9
(g19
g11
NtRp1242
(dp1243
g14
(lp1244
sg16
I-8207400709480606653
sg17
Nsg18
(g9
(g23
g11
NtRp1245
((I0
S'1L'
I0
I1
t(dp1246
g26
I53
sg14
(lp1247
sg16
I-8838321674194594742
sg17
Nsg18
(tsg28
g71
stbg986
g875
tp1248
sg28
g190
sg59
I01
sbg9
(g19
g11
NtRp1249
(dp1250
g14
(lp1251
sg16
I6007517913957455436
sg17
Nsg18
(g9
(g23
g11
NtRp1252
((I0
S'1L'
I0
I1
t(dp1253
g26
I53
sg14
(lp1254
sg16
I-8838321674194594742
sg17
Nsg18
(tsg28
g71
stbg1200
g916
tp1255
sg28
g190
sg59
I01
sbtp1256
sg28
g278
sg59
I01
sbg922
tp1257
sg28
g190
sg59
I01
sbtp1258
sg28
g278
sg59
I01
sbag9
(g10
g11
NtRp1259
(dp1260
g14
(lp1261
sg16
I-2941514042641039975
sg17
Nsg18
(g9
(g19
g11
NtRp1262
(dp1263
g14
(lp1264
sg16
I-4984259500004337909
sg17
Nsg18
(g9
(g23
g11
NtRp1265
((I1
S'3L'
I4
I2
t(dp1266
g26
I53
sg14
(lp1267
sg16
I2669681814860609964
sg17
Nsg18
(tsg28
g71
stbg468
g222
tp1268
sg28
g190
sg59
I01
sbg9
(g19
g11
NtRp1269
(dp1270
g14
(lp1271
sg16
I-4130610163163382853
sg17
Nsg18
(g9
(g23
g11
NtRp1272
((I1
S'19L'
I2
I5
t(dp1273
g26
I53
sg14
(lp1274
sg16
I-2346872259468522873
sg17
Nsg18
(tsg28
g71
stbg297
g49
g97
tp1275
sg28
g190
sg59
I01
sbg9
(g19
g11
NtRp1276
(dp1277
g14
(lp1278
sg16
I-2092700029830033304
sg17
Nsg18
(g9
(g23
g11
NtRp1279
((I1
S'fL'
I0
I4
t(dp1280
g26
I53
sg14
(lp1281
sg16
I3752288974540287166
sg17
Nsg18
(tsg28
g71
stbg9
(g10
g11
NtRp1282
(dp1283
g14
(lp1284
sg16
I1821455006324006909
sg17
Nsg18
(g9
(g19
g11
NtRp1285
(dp1286
g14
(lp1287
sg16
I3307010570032712877
sg17
Nsg18
(g9
(g23
g11
NtRp1288
((I0
S'1L'
I0
I1
t(dp1289
g26
I53
sg14
(lp1290
sg16
I-8838321674194594742
sg17
Nsg18
(tsg28
g71
stbg9
(g10
g11
NtRp1291
(dp1292
g14
(lp1293
sg16
I3147017841727492541
sg17
Nsg18
(g9
(g19
g11
NtRp1294
(dp1295
g14
(lp1296
sg16
I-179151381952944648
sg17
Nsg18
(g9
(g23
g11
NtRp1297
((I0
S'1L'
I0
I1
t(dp1298
g26
I53
sg14
(lp1299
sg16
I-8838321674194594742
sg17
Nsg18
(tsg28
g71
stbg9
(g10
g11
NtRp1300
(dp1301
g14
(lp1302
sg16
I8865864819885720016
sg17
Nsg18
(g9
(g19
g11
NtRp1303
(dp1304
g14
(lp1305
sg16
I-4706671706631084043
sg17
Nsg18
(g9
(g23
g11
NtRp1306
((I1
S'1L'
I0
I1
t(dp1307
g26
I53
sg14
(lp1308
sg16
I1652741725224645181
sg17
Nsg18
(tsg28
g71
stbg297
g49
g97
tp1309
sg28
g190
sg59
I01
sbg9
(g19
g11
NtRp1310
(dp1311
g14
(lp1312
sg16
I275519332423297576
sg17
Nsg18
(g9
(g23
g11
NtRp1313
((I0
S'1L'
I0
I1
t(dp1314
g26
I53
sg14
(lp1315
sg16
I-8838321674194594742
sg17
Nsg18
(tsg28
g71
stbg92
g297
g113
tp1316
sg28
g190
sg59
I01
sbtp1317
sg28
g278
sg59
I01
sbg153
tp1318
sg28
g190
sg59
I01
sbg9
(g19
g11
NtRp1319
(dp1320
g14
(lp1321
sg16
I6559516068848125224
sg17
Nsg18
(g9
(g23
g11
NtRp1322
((I0
S'1L'
I0
I1
t(dp1323
g26
I53
sg14
(lp1324
sg16
I-8838321674194594742
sg17
Nsg18
(tsg28
g71
stbg9
(g10
g11
NtRp1325
(dp1326
g14
(lp1327
sg16
I1365392327128854027
sg17
Nsg18
(g9
(g19
g11
NtRp1328
(dp1329
g14
(lp1330
sg16
I7471078702734194003
sg17
Nsg18
(g9
(g23
g11
NtRp1331
((I0
S'1L'
I0
I1
t(dp1332
g26
I53
sg14
(lp1333
sg16
I-8838321674194594742
sg17
Nsg18
(tsg28
g71
stbg297
g113
g49
tp1334
sg28
g190
sg59
I01
sbg9
(g19
g11
NtRp1335
(dp1336
g14
(lp1337
sg16
I8104873777878750627
sg17
Nsg18
(g9
(g23
g11
NtRp1338
((I0
S'1L'
I0
I1
t(dp1339
g26
I53
sg14
(lp1340
sg16
I-8838321674194594742
sg17
Nsg18
(tsg28
g71
stbg92
g297
g97
tp1341
sg28
g190
sg59
I01
sbtp1342
sg28
g278
sg59
I01
sbg120
tp1343
sg28
g190
sg59
I01
sbtp1344
sg28
g278
sg59
I01
sbg222
tp1345
sg28
g190
sg59
I01
sbg9
(g19
g11
NtRp1346
(dp1347
g14
(lp1348
sg16
I5626036992843919455
sg17
Nsg18
(g9
(g23
g11
NtRp1349
((I0
S'1L'
I0
I1
t(dp1350
g26
I53
sg14
(lp1351
sg16
I-8838321674194594742
sg17
Nsg18
(tsg28
g71
stbg9
(g10
g11
NtRp1352
(dp1353
g14
(lp1354
sg16
I994401936149822204
sg17
Nsg18
(g9
(g19
g11
NtRp1355
(dp1356
g14
(lp1357
sg16
I-4332782819563979361
sg17
Nsg18
(g9
(g23
g11
NtRp1358
((I1
S'1L'
I0
I1
t(dp1359
g26
I53
sg14
(lp1360
sg16
I1652741725224645181
sg17
Nsg18
(tsg28
g71
stbg9
(g10
g11
NtRp1361
(dp1362
g14
(lp1363
sg16
I-7548237533527151340
sg17
Nsg18
(g9
(g19
g11
NtRp1364
(dp1365
g14
(lp1366
sg16
I1677479145591187940
sg17
Nsg18
(g9
(g23
g11
NtRp1367
((I1
S'1L'
I0
I1
t(dp1368
g26
I53
sg14
(lp1369
sg16
I1652741725224645181
sg17
Nsg18
(tsg28
g71
stbg1325
g153
tp1370
sg28
g190
sg59
I01
sbg9
(g19
g11
NtRp1371
(dp1372
g14
(lp1373
sg16
I3099578263300593351
sg17
Nsg18
(g9
(g23
g11
NtRp1374
((I0
S'1L'
I0
I1
t(dp1375
g26
I53
sg14
(lp1376
sg16
I-8838321674194594742
sg17
Nsg18
(tsg28
g71
stbg1300
g120
tp1377
sg28
g190
sg59
I01
sbtp1378
sg28
g278
sg59
I01
sbg240
tp1379
sg28
g190
sg59
I01
sbg9
(g19
g11
NtRp1380
(dp1381
g14
(lp1382
sg16
I-2673052101732526026
sg17
Nsg18
(g9
(g23
g11
NtRp1383
((I1
S'1L'
I0
I1
t(dp1384
g26
I53
sg14
(lp1385
sg16
I1652741725224645181
sg17
Nsg18
(tsg28
g71
stbg159
g330
tp1386
sg28
g190
sg59
I01
sbtp1387
sg28
g278
sg59
I01
sbg167
tp1388
sg28
g190
sg59
I01
sbtp1389
sg28
g278
sg59
I01
sbg820
tp1390
sg28
g190
sg59
I01
sbg9
(g19
g11
NtRp1391
(dp1392
g14
(lp1393
sg16
I-1600366168989207564
sg17
Nsg18
(g9
(g23
g11
NtRp1394
((I0
S'69L'
I0
I7
t(dp1395
g26
I53
sg14
(lp1396
sg16
I2601078411346328320
sg17
Nsg18
(tsg28
g71
stbg9
(g10
g11
NtRp1397
(dp1398
g14
(lp1399
sg16
I-4295344753894005197
sg17
Nsg18
(g9
(g19
g11
NtRp1400
(dp1401
g14
(lp1402
sg16
I-8769296915329013250
sg17
Nsg18
(g9
(g23
g11
NtRp1403
((I1
S'1L'
I0
I1
t(dp1404
g26
I53
sg14
(lp1405
sg16
I1652741725224645181
sg17
Nsg18
(tsg28
g71
stbg1352
g167
g222
tp1406
sg28
g190
sg59
I01
sbg9
(g19
g11
NtRp1407
(dp1408
g14
(lp1409
sg16
I-3699321434666596975
sg17
Nsg18
(g9
(g23
g11
NtRp1410
((I0
S'1L'
I0
I1
t(dp1411
g26
I53
sg14
(lp1412
sg16
I-8838321674194594742
sg17
Nsg18
(tsg28
g71
stbg9
(g10
g11
NtRp1413
(dp1414
g14
(lp1415
sg16
I342603747553168425
sg17
Nsg18
(g9
(g19
g11
NtRp1416
(dp1417
g14
(lp1418
sg16
I-327907797676642157
sg17
Nsg18
(g9
(g23
g11
NtRp1419
((I0
S'1L'
I0
I1
t(dp1420
g26
I53
sg14
(lp1421
sg16
I-8838321674194594742
sg17
Nsg18
(tsg28
g71
stbg1361
g159
tp1422
sg28
g190
sg59
I01
sbg9
(g19
g11
NtRp1423
(dp1424
g14
(lp1425
sg16
I59344110584892397
sg17
Nsg18
(g9
(g23
g11
NtRp1426
((I1
S'1L'
I0
I1
t(dp1427
g26
I53
sg14
(lp1428
sg16
I1652741725224645181
sg17
Nsg18
(tsg28
g71
stbg330
g240
tp1429
sg28
g190
sg59
I01
sbtp1430
sg28
g278
sg59
I01
sbg222
tp1431
sg28
g190
sg59
I01
sbg9
(g19
g11
NtRp1432
(dp1433
g14
(lp1434
sg16
I-2199822165831319803
sg17
Nsg18
(g9
(g23
g11
NtRp1435
((I0
S'1L'
I0
I1
t(dp1436
g26
I53
sg14
(lp1437
sg16
I-8838321674194594742
sg17
Nsg18
(tsg28
g71
stbg862
g1291
tp1438
sg28
g190
sg59
I01
sbtp1439
sg28
g278
sg59
I01
sbg916
tp1440
sg28
g190
sg59
I01
sbg9
(g19
g11
NtRp1441
(dp1442
g14
(lp1443
sg16
I485365294006845383
sg17
Nsg18
(g9
(g23
g11
NtRp1444
((I0
S'b9L'
I0
I8
t(dp1445
g26
I53
sg14
(lp1446
sg16
I-3381591462083460617
sg17
Nsg18
(tsg28
g71
stbg529
g167
tp1447
sg28
g190
sg59
I01
sbg9
(g19
g11
NtRp1448
(dp1449
g14
(lp1450
sg16
I552476898296133408
sg17
Nsg18
(g9
(g23
g11
NtRp1451
((I0
S'cdccccccccccdL'
I-45
I52
t(dp1452
g26
I53
sg14
(lp1453
sg16
I-2031544583562847888
sg17
Nsg18
(tsg28
g71
stbg92
g297
tp1454
sg28
g190
sg59
I01
sbg9
(g19
g11
NtRp1455
(dp1456
g14
(lp1457
sg16
I763816678828340986
sg17
Nsg18
(g9
(g23
g11
NtRp1458
((I1
S'fL'
I0
I4
t(dp1459
g26
I53
sg14
(lp1460
sg16
I3752288974540287166
sg17
Nsg18
(tsg28
g71
stbg9
(g10
g11
NtRp1461
(dp1462
g14
(lp1463
sg16
I-6020339874695173112
sg17
Nsg18
(g9
(g19
g11
NtRp1464
(dp1465
g14
(lp1466
sg16
I-4268329938037799770
sg17
Nsg18
(g9
(g23
g11
NtRp1467
((I0
S'1L'
I0
I1
t(dp1468
g26
I53
sg14
(lp1469
sg16
I-8838321674194594742
sg17
Nsg18
(tsg28
g71
stbg9
(g10
g11
NtRp1470
(dp1471
g14
(lp1472
sg16
I-6896848754567807245
sg17
Nsg18
(g9
(g19
g11
NtRp1473
(dp1474
g14
(lp1475
sg16
I-8580502693673333025
sg17
Nsg18
(g9
(g23
g11
NtRp1476
((I0
S'1L'
I0
I1
t(dp1477
g26
I53
sg14
(lp1478
sg16
I-8838321674194594742
sg17
Nsg18
(tsg28
g71
stbg252
g1352
tp1479
sg28
g190
sg59
I01
sbg9
(g19
g11
NtRp1480
(dp1481
g14
(lp1482
sg16
I-5637959931533920842
sg17
Nsg18
(g9
(g23
g11
NtRp1483
((I0
S'1L'
I0
I1
t(dp1484
g26
I53
sg14
(lp1485
sg16
I-8838321674194594742
sg17
Nsg18
(tsg28
g71
stbg1413
g167
tp1486
sg28
g190
sg59
I01
sbg9
(g19
g11
NtRp1487
(dp1488
g14
(lp1489
sg16
I-4595438055286873069
sg17
Nsg18
(g9
(g23
g11
NtRp1490
((I1
S'1L'
I0
I1
t(dp1491
g26
I53
sg14
(lp1492
sg16
I1652741725224645181
sg17
Nsg18
(tsg28
g71
stbg1291
g167
g222
tp1493
sg28
g190
sg59
I01
sbtp1494
sg28
g278
sg59
I01
sbg916
tp1495
sg28
g190
sg59
I01
sbg9
(g19
g11
NtRp1496
(dp1497
g14
(lp1498
sg16
I-3739347686105163427
sg17
Nsg18
(g9
(g23
g11
NtRp1499
((I0
S'1L'
I0
I1
t(dp1500
g26
I53
sg14
(lp1501
sg16
I-8838321674194594742
sg17
Nsg18
(tsg28
g71
stbg1397
g875
tp1502
sg28
g190
sg59
I01
sbtp1503
sg28
g278
sg59
I01
sbg922
tp1504
sg28
g190
sg59
I01
sbg9
(g19
g11
NtRp1505
(dp1506
g14
(lp1507
sg16
I2824584769136286737
sg17
Nsg18
(g9
(g23
g11
NtRp1508
((I1
S'3L'
I4
I2
t(dp1509
g26
I53
sg14
(lp1510
sg16
I2669681814860609964
sg17
Nsg18
(tsg28
g71
stbg579
g167
tp1511
sg28
g190
sg59
I01
sbg9
(g19
g11
NtRp1512
(dp1513
g14
(lp1514
sg16
I4768025870268538004
sg17
Nsg18
(g9
(g23
g11
NtRp1515
((I1
S'69L'
I0
I7
t(dp1516
g26
I53
sg14
(lp1517
sg16
I60220716336317631
sg17
Nsg18
(tsg28
g71
stbg1470
g875
tp1518
sg28
g190
sg59
I01
sbg9
(g19
g11
NtRp1519
(dp1520
g14
(lp1521
sg16
I5842537786206894430
sg17
Nsg18
(g9
(g23
g11
NtRp1522
((I0
S'b9L'
I0
I8
t(dp1523
g26
I53
sg14
(lp1524
sg16
I-3381591462083460617
sg17
Nsg18
(tsg28
g71
stbg252
g579
tp1525
sg28
g190
sg59
I01
sbg9
(g19
g11
NtRp1526
(dp1527
g14
(lp1528
sg16
I8105391505651946570
sg17
Nsg18
(g9
(g23
g11
NtRp1529
((I0
S'19L'
I2
I5
t(dp1530
g26
I53
sg14
(lp1531
sg16
I-3718610978853045224
sg17
Nsg18
(tsg28
g71
stbg92
g297
g113
tp1532
sg28
g190
sg59
I01
sbg9
(g19
g11
NtRp1533
(dp1534
g14
(lp1535
sg16
I8626184507562385740
sg17
Nsg18
(g9
(g23
g11
NtRp1536
((I1
S'b9L'
I0
I8
t(dp1537
g26
I53
sg14
(lp1538
sg16
I-854491074346194472
sg17
Nsg18
(tsg28
g71
stbg468
g167
g222
tp1539
sg28
g190
sg59
I01
sbtp1540
sg28
g278
sg59
I01
sbag9
(g23
g11
NtRp1541
((I0
S'1L'
I0
I1
t(dp1542
g26
I53
sg14
(lp1543
sg16
Nsg17
Nsg18
(tsg28
g71
stbatbsg880
g3
(g4
(I0
tS'b'
tRp1544
(I1
(I4
I1
tg7
I00
(lp1545
g9
(g10
g11
NtRp1546
(dp1547
g14
(lp1548
sg16
I-5606635350969696707
sg17
Nsg18
(g20
g9
(g19
g11
NtRp1549
(dp1550
g14
(lp1551
sg16
I-7570417696432241723
sg17
Nsg18
(g9
(g23
g11
NtRp1552
((I0
S'b9L'
I0
I8
t(dp1553
g26
I53
sg14
(lp1554
sg16
I-3381591462083460617
sg17
Nsg18
(tsg28
g71
stbg72
g159
g167
tp1555
sg28
g190
sg59
I01
sbg9
(g19
g11
NtRp1556
(dp1557
g14
(lp1558
sg16
I-5602066592115065747
sg17
Nsg18
(g9
(g23
g11
NtRp1559
((I1
S'19L'
I2
I5
t(dp1560
g26
I53
sg14
(lp1561
sg16
I-2346872259468522873
sg17
Nsg18
(tsg28
(dp1562
g30
I01
sg31
I01
sg32
I01
sg33
I00
sg35
I00
sg36
I00
sg46
I00
sg37
I01
sg41
I01
sg39
I00
sg40
I00
sg34
I00
sg42
I01
sg43
I00
sg44
I00
sg45
I01
sg38
I00
sg47
I01
sstbg113
g49
tp1563
sg28
g190
sg59
I01
sbg9
(g19
g11
NtRp1564
(dp1565
g14
(lp1566
sg16
I-300626685300637712
sg17
Nsg18
(g9
(g23
g11
NtRp1567
((I1
S'b9L'
I0
I8
t(dp1568
g26
I53
sg14
(lp1569
sg16
I-854491074346194472
sg17
Nsg18
(tsg28
g71
stbg204
g167
g222
tp1570
sg28
g190
sg59
I01
sbg9
(g19
g11
NtRp1571
(dp1572
g14
(lp1573
sg16
I2919721447578170342
sg17
Nsg18
(g9
(g23
g11
NtRp1574
((I0
S'3L'
I4
I2
t(dp1575
g26
I53
sg14
(lp1576
sg16
I8290848331410560139
sg17
Nsg18
(tsg28
g71
stbg72
g167
g240
tp1577
sg28
g190
sg59
I01
sbg9
(g19
g11
NtRp1578
(dp1579
g14
(lp1580
sg16
I3960466736704400709
sg17
Nsg18
(g9
(g23
g11
NtRp1581
((I1
S'19L'
I2
I5
t(dp1582
g26
I53
sg14
(lp1583
sg16
I-2346872259468522873
sg17
Nsg18
(tsg28
g1562
stbg92
g97
tp1584
sg28
g190
sg59
I01
sbg9
(g19
g11
NtRp1585
(dp1586
g14
(lp1587
sg16
I4932250873753322079
sg17
Nsg18
(g9
(g23
g11
NtRp1588
((I1
S'3L'
I4
I2
t(dp1589
g26
I53
sg14
(lp1590
sg16
I2669681814860609964
sg17
Nsg18
(tsg28
g71
stbg204
g222
tp1591
sg28
g190
sg59
I01
sbg9
(g19
g11
NtRp1592
(dp1593
g14
(lp1594
sg16
I8312396885552945895
sg17
Nsg18
(g9
(g23
g11
NtRp1595
((I1
S'b9L'
I0
I8
t(dp1596
g26
I53
sg14
(lp1597
sg16
I-854491074346194472
sg17
Nsg18
(tsg28
g71
stbg252
g72
g240
tp1598
sg28
g190
sg59
I01
sbtp1599
sg28
g278
sg59
I01
sbag9
(g10
g11
NtRp1600
(dp1601
g14
(lp1602
sg16
I-2353075372435893210
sg17
Nsg18
(g9
(g19
g11
NtRp1603
(dp1604
g14
(lp1605
sg16
I-2995748627625413259
sg17
Nsg18
(g9
(g23
g11
NtRp1606
((I1
S'3L'
I4
I2
t(dp1607
g26
I53
sg14
(lp1608
sg16
I2669681814860609964
sg17
Nsg18
(tsg28
g71
stbg404
g222
tp1609
sg28
g190
sg59
I01
sbg9
(g19
g11
NtRp1610
(dp1611
g14
(lp1612
sg16
I405894300130032289
sg17
Nsg18
(g9
(g23
g11
NtRp1613
((I0
S'19L'
I2
I5
t(dp1614
g26
I53
sg14
(lp1615
sg16
I-3718610978853045224
sg17
Nsg18
(tsg28
g1562
stbg92
g113
g330
tp1616
sg28
g190
sg59
I01
sbg9
(g19
g11
NtRp1617
(dp1618
g14
(lp1619
sg16
I563910896583493480
sg17
Nsg18
(g9
(g23
g11
NtRp1620
((I1
S'19L'
I2
I5
t(dp1621
g26
I53
sg14
(lp1622
sg16
I-2346872259468522873
sg17
Nsg18
(tsg28
g1562
stbg49
g330
g97
tp1623
sg28
g190
sg59
I01
sbg9
(g19
g11
NtRp1624
(dp1625
g14
(lp1626
sg16
I3951041701381161183
sg17
Nsg18
(g9
(g23
g11
NtRp1627
((I0
S'cdccccccccccdL'
I-45
I52
t(dp1628
g26
I53
sg14
(lp1629
sg16
I-2031544583562847888
sg17
Nsg18
(tsg28
g1562
stbg92
g330
tp1630
sg28
g190
sg59
I01
sbg9
(g19
g11
NtRp1631
(dp1632
g14
(lp1633
sg16
I5604670137009848873
sg17
Nsg18
(g9
(g23
g11
NtRp1634
((I0
S'b9L'
I0
I8
t(dp1635
g26
I53
sg14
(lp1636
sg16
I-3381591462083460617
sg17
Nsg18
(tsg28
g71
stbg288
g167
tp1637
sg28
g190
sg59
I01
sbg9
(g19
g11
NtRp1638
(dp1639
g14
(lp1640
sg16
I6822248806197357551
sg17
Nsg18
(g9
(g23
g11
NtRp1641
((I1
S'3L'
I4
I2
t(dp1642
g26
I53
sg14
(lp1643
sg16
I2669681814860609964
sg17
Nsg18
(tsg28
g71
stbg379
g167
tp1644
sg28
g190
sg59
I01
sbg9
(g19
g11
NtRp1645
(dp1646
g14
(lp1647
sg16
I6891304737471354842
sg17
Nsg18
(g9
(g23
g11
NtRp1648
((I1
S'b9L'
I0
I8
t(dp1649
g26
I53
sg14
(lp1650
sg16
I-854491074346194472
sg17
Nsg18
(tsg28
g71
stbg404
g167
g222
tp1651
sg28
g190
sg59
I01
sbg9
(g19
g11
NtRp1652
(dp1653
g14
(lp1654
sg16
I7118835016342507136
sg17
Nsg18
(g9
(g23
g11
NtRp1655
((I0
S'b9L'
I0
I8
t(dp1656
g26
I53
sg14
(lp1657
sg16
I-3381591462083460617
sg17
Nsg18
(tsg28
g71
stbg252
g379
tp1658
sg28
g190
sg59
I01
sbtp1659
sg28
g278
sg59
I01
sbag9
(g10
g11
NtRp1660
(dp1661
g14
(lp1662
sg16
I-5767989422061638805
sg17
Nsg18
(g9
(g19
g11
NtRp1663
(dp1664
g14
(lp1665
sg16
I-4984259500004337909
sg17
Nsg18
(g9
(g23
g11
NtRp1666
((I1
S'3L'
I4
I2
t(dp1667
g26
I53
sg14
(lp1668
sg16
I2669681814860609964
sg17
Nsg18
(tsg28
g71
stbg468
g222
tp1669
sg28
g190
sg59
I01
sbg9
(g19
g11
NtRp1670
(dp1671
g14
(lp1672
sg16
I-4130610163163382853
sg17
Nsg18
(g9
(g23
g11
NtRp1673
((I1
S'19L'
I2
I5
t(dp1674
g26
I53
sg14
(lp1675
sg16
I-2346872259468522873
sg17
Nsg18
(tsg28
g1562
stbg297
g49
g97
tp1676
sg28
g190
sg59
I01
sbg9
(g19
g11
NtRp1677
(dp1678
g14
(lp1679
sg16
I485365294006845383
sg17
Nsg18
(g9
(g23
g11
NtRp1680
((I0
S'b9L'
I0
I8
t(dp1681
g26
I53
sg14
(lp1682
sg16
I-3381591462083460617
sg17
Nsg18
(tsg28
g71
stbg529
g167
tp1683
sg28
g190
sg59
I01
sbg9
(g19
g11
NtRp1684
(dp1685
g14
(lp1686
sg16
I552476898296133408
sg17
Nsg18
(g9
(g23
g11
NtRp1687
((I0
S'cdccccccccccdL'
I-45
I52
t(dp1688
g26
I53
sg14
(lp1689
sg16
I-2031544583562847888
sg17
Nsg18
(tsg28
g1562
stbg92
g297
tp1690
sg28
g190
sg59
I01
sbg9
(g19
g11
NtRp1691
(dp1692
g14
(lp1693
sg16
I2824584769136286737
sg17
Nsg18
(g9
(g23
g11
NtRp1694
((I1
S'3L'
I4
I2
t(dp1695
g26
I53
sg14
(lp1696
sg16
I2669681814860609964
sg17
Nsg18
(tsg28
g71
stbg579
g167
tp1697
sg28
g190
sg59
I01
sbg9
(g19
g11
NtRp1698
(dp1699
g14
(lp1700
sg16
I5842537786206894430
sg17
Nsg18
(g9
(g23
g11
NtRp1701
((I0
S'b9L'
I0
I8
t(dp1702
g26
I53
sg14
(lp1703
sg16
I-3381591462083460617
sg17
Nsg18
(tsg28
g71
stbg252
g579
tp1704
sg28
g190
sg59
I01
sbg9
(g19
g11
NtRp1705
(dp1706
g14
(lp1707
sg16
I8105391505651946570
sg17
Nsg18
(g9
(g23
g11
NtRp1708
((I0
S'19L'
I2
I5
t(dp1709
g26
I53
sg14
(lp1710
sg16
I-3718610978853045224
sg17
Nsg18
(tsg28
g1562
stbg92
g297
g113
tp1711
sg28
g190
sg59
I01
sbg9
(g19
g11
NtRp1712
(dp1713
g14
(lp1714
sg16
I8626184507562385740
sg17
Nsg18
(g9
(g23
g11
NtRp1715
((I1
S'b9L'
I0
I8
t(dp1716
g26
I53
sg14
(lp1717
sg16
I-854491074346194472
sg17
Nsg18
(tsg28
g71
stbg468
g167
g222
tp1718
sg28
g190
sg59
I01
sbtp1719
sg28
g278
sg59
I01
sbag9
(g23
g11
NtRp1720
((I0
S'1L'
I0
I1
t(dp1721
g26
I53
sg14
(lp1722
sg16
Nsg17
Nsg18
(tsg28
g71
stbatbsS'LShoulderPitch'
p1723
g3
(g4
(I0
tS'b'
tRp1724
(I1
(I4
I1
tg7
I00
(lp1725
g9
(g10
g11
NtRp1726
(dp1727
g14
(lp1728
sg16
I1667728988858715677
sg17
Nsg18
(g20
g9
(g19
g11
NtRp1729
(dp1730
g14
(lp1731
sg16
I-7570417696432241723
sg17
Nsg18
(g9
(g23
g11
NtRp1732
((I0
S'b9L'
I0
I8
t(dp1733
g26
I53
sg14
(lp1734
sg16
I-3381591462083460617
sg17
Nsg18
(tsg28
g71
stbg72
g159
g167
tp1735
sg28
g190
sg59
I01
sbg9
(g19
g11
NtRp1736
(dp1737
g14
(lp1738
sg16
I-5862754889588865304
sg17
Nsg18
(g9
(g23
g11
NtRp1739
((I0
S'25L'
I2
I6
t(dp1740
g26
I53
sg14
(lp1741
sg16
I7839484899910388231
sg17
Nsg18
(tsg28
g71
stbg204
g222
tp1742
sg28
g190
sg59
I01
sbg9
(g19
g11
NtRp1743
(dp1744
g14
(lp1745
sg16
I-5602066592115065747
sg17
Nsg18
(g9
(g23
g11
NtRp1746
((I1
S'19L'
I2
I5
t(dp1747
g26
I53
sg14
(lp1748
sg16
I-2346872259468522873
sg17
Nsg18
(tsg28
(dp1749
g30
I01
sg31
I01
sg32
I01
sg33
I00
sg35
I00
sg36
I00
sg46
I00
sg37
I01
sg41
I01
sg39
I00
sg40
I00
sg34
I00
sg42
I01
sg43
I00
sg44
I00
sg45
I01
sg38
I00
sg47
I01
sstbg113
g49
tp1750
sg28
g190
sg59
I01
sbg9
(g19
g11
NtRp1751
(dp1752
g14
(lp1753
sg16
I-3639004525552130269
sg17
Nsg18
(g9
(g23
g11
NtRp1754
((I1
S'25L'
I2
I6
t(dp1755
g26
I53
sg14
(lp1756
sg16
I5888801430113040896
sg17
Nsg18
(tsg28
g71
stbg72
g167
g240
tp1757
sg28
g190
sg59
I01
sbg9
(g19
g11
NtRp1758
(dp1759
g14
(lp1760
sg16
I-300626685300637712
sg17
Nsg18
(g9
(g23
g11
NtRp1761
((I1
S'b9L'
I0
I8
t(dp1762
g26
I53
sg14
(lp1763
sg16
I-854491074346194472
sg17
Nsg18
(tsg28
g71
stbg204
g167
g222
tp1764
sg28
g190
sg59
I01
sbg9
(g19
g11
NtRp1765
(dp1766
g14
(lp1767
sg16
I3960466736704400709
sg17
Nsg18
(g9
(g23
g11
NtRp1768
((I1
S'19L'
I2
I5
t(dp1769
g26
I53
sg14
(lp1770
sg16
I-2346872259468522873
sg17
Nsg18
(tsg28
g1749
stbg92
g97
tp1771
sg28
g190
sg59
I01
sbg9
(g19
g11
NtRp1772
(dp1773
g14
(lp1774
sg16
I8312396885552945895
sg17
Nsg18
(g9
(g23
g11
NtRp1775
((I1
S'b9L'
I0
I8
t(dp1776
g26
I53
sg14
(lp1777
sg16
I-854491074346194472
sg17
Nsg18
(tsg28
g71
stbg252
g72
g240
tp1778
sg28
g190
sg59
I01
sbtp1779
sg28
g278
sg59
I01
sbag9
(g10
g11
NtRp1780
(dp1781
g14
(lp1782
sg16
I-7234718410960740
sg17
Nsg18
(g9
(g19
g11
NtRp1783
(dp1784
g14
(lp1785
sg16
I-8457088500774360200
sg17
Nsg18
(g9
(g23
g11
NtRp1786
((I0
S'25L'
I2
I6
t(dp1787
g26
I53
sg14
(lp1788
sg16
I7839484899910388231
sg17
Nsg18
(tsg28
g71
stbg379
g167
tp1789
sg28
g190
sg59
I01
sbg9
(g19
g11
NtRp1790
(dp1791
g14
(lp1792
sg16
I-7845748222798733166
sg17
Nsg18
(g9
(g23
g11
NtRp1793
((I0
S'25L'
I2
I6
t(dp1794
g26
I53
sg14
(lp1795
sg16
I7839484899910388231
sg17
Nsg18
(tsg28
g71
stbg404
g222
tp1796
sg28
g190
sg59
I01
sbg9
(g19
g11
NtRp1797
(dp1798
g14
(lp1799
sg16
I405894300130032289
sg17
Nsg18
(g9
(g23
g11
NtRp1800
((I0
S'19L'
I2
I5
t(dp1801
g26
I53
sg14
(lp1802
sg16
I-3718610978853045224
sg17
Nsg18
(tsg28
g1749
stbg92
g113
g330
tp1803
sg28
g190
sg59
I01
sbg9
(g19
g11
NtRp1804
(dp1805
g14
(lp1806
sg16
I563910896583493480
sg17
Nsg18
(g9
(g23
g11
NtRp1807
((I1
S'19L'
I2
I5
t(dp1808
g26
I53
sg14
(lp1809
sg16
I-2346872259468522873
sg17
Nsg18
(tsg28
g1749
stbg49
g330
g97
tp1810
sg28
g190
sg59
I01
sbg9
(g19
g11
NtRp1811
(dp1812
g14
(lp1813
sg16
I3951041701381161183
sg17
Nsg18
(g9
(g23
g11
NtRp1814
((I0
S'cdccccccccccdL'
I-45
I52
t(dp1815
g26
I53
sg14
(lp1816
sg16
I-2031544583562847888
sg17
Nsg18
(tsg28
g1749
stbg92
g330
tp1817
sg28
g190
sg59
I01
sbg9
(g19
g11
NtRp1818
(dp1819
g14
(lp1820
sg16
I5604670137009848873
sg17
Nsg18
(g9
(g23
g11
NtRp1821
((I0
S'b9L'
I0
I8
t(dp1822
g26
I53
sg14
(lp1823
sg16
I-3381591462083460617
sg17
Nsg18
(tsg28
g71
stbg288
g167
tp1824
sg28
g190
sg59
I01
sbg9
(g19
g11
NtRp1825
(dp1826
g14
(lp1827
sg16
I6891304737471354842
sg17
Nsg18
(g9
(g23
g11
NtRp1828
((I1
S'b9L'
I0
I8
t(dp1829
g26
I53
sg14
(lp1830
sg16
I-854491074346194472
sg17
Nsg18
(tsg28
g71
stbg404
g167
g222
tp1831
sg28
g190
sg59
I01
sbg9
(g19
g11
NtRp1832
(dp1833
g14
(lp1834
sg16
I7118835016342507136
sg17
Nsg18
(g9
(g23
g11
NtRp1835
((I0
S'b9L'
I0
I8
t(dp1836
g26
I53
sg14
(lp1837
sg16
I-3381591462083460617
sg17
Nsg18
(tsg28
g71
stbg252
g379
tp1838
sg28
g190
sg59
I01
sbtp1839
sg28
g278
sg59
I01
sbag9
(g10
g11
NtRp1840
(dp1841
g14
(lp1842
sg16
I-3412276126866994113
sg17
Nsg18
(g9
(g19
g11
NtRp1843
(dp1844
g14
(lp1845
sg16
I-7749752983933487154
sg17
Nsg18
(g9
(g23
g11
NtRp1846
((I0
S'25L'
I2
I6
t(dp1847
g26
I53
sg14
(lp1848
sg16
I7839484899910388231
sg17
Nsg18
(tsg28
g71
stbg579
g167
tp1849
sg28
g190
sg59
I01
sbg9
(g19
g11
NtRp1850
(dp1851
g14
(lp1852
sg16
I-4130610163163382853
sg17
Nsg18
(g9
(g23
g11
NtRp1853
((I1
S'19L'
I2
I5
t(dp1854
g26
I53
sg14
(lp1855
sg16
I-2346872259468522873
sg17
Nsg18
(tsg28
g1749
stbg297
g49
g97
tp1856
sg28
g190
sg59
I01
sbg9
(g19
g11
NtRp1857
(dp1858
g14
(lp1859
sg16
I25317318822484564
sg17
Nsg18
(g9
(g23
g11
NtRp1860
((I0
S'25L'
I2
I6
t(dp1861
g26
I53
sg14
(lp1862
sg16
I7839484899910388231
sg17
Nsg18
(tsg28
g71
stbg468
g222
tp1863
sg28
g190
sg59
I01
sbg9
(g19
g11
NtRp1864
(dp1865
g14
(lp1866
sg16
I485365294006845383
sg17
Nsg18
(g9
(g23
g11
NtRp1867
((I0
S'b9L'
I0
I8
t(dp1868
g26
I53
sg14
(lp1869
sg16
I-3381591462083460617
sg17
Nsg18
(tsg28
g71
stbg529
g167
tp1870
sg28
g190
sg59
I01
sbg9
(g19
g11
NtRp1871
(dp1872
g14
(lp1873
sg16
I552476898296133408
sg17
Nsg18
(g9
(g23
g11
NtRp1874
((I0
S'cdccccccccccdL'
I-45
I52
t(dp1875
g26
I53
sg14
(lp1876
sg16
I-2031544583562847888
sg17
Nsg18
(tsg28
g1749
stbg92
g297
tp1877
sg28
g190
sg59
I01
sbg9
(g19
g11
NtRp1878
(dp1879
g14
(lp1880
sg16
I5842537786206894430
sg17
Nsg18
(g9
(g23
g11
NtRp1881
((I0
S'b9L'
I0
I8
t(dp1882
g26
I53
sg14
(lp1883
sg16
I-3381591462083460617
sg17
Nsg18
(tsg28
g71
stbg252
g579
tp1884
sg28
g190
sg59
I01
sbg9
(g19
g11
NtRp1885
(dp1886
g14
(lp1887
sg16
I8105391505651946570
sg17
Nsg18
(g9
(g23
g11
NtRp1888
((I0
S'19L'
I2
I5
t(dp1889
g26
I53
sg14
(lp1890
sg16
I-3718610978853045224
sg17
Nsg18
(tsg28
g1749
stbg92
g297
g113
tp1891
sg28
g190
sg59
I01
sbg9
(g19
g11
NtRp1892
(dp1893
g14
(lp1894
sg16
I8626184507562385740
sg17
Nsg18
(g9
(g23
g11
NtRp1895
((I1
S'b9L'
I0
I8
t(dp1896
g26
I53
sg14
(lp1897
sg16
I-854491074346194472
sg17
Nsg18
(tsg28
g71
stbg468
g167
g222
tp1898
sg28
g190
sg59
I01
sbtp1899
sg28
g278
sg59
I01
sbag9
(g23
g11
NtRp1900
((I0
S'1L'
I0
I1
t(dp1901
g26
I53
sg14
(lp1902
sg16
Nsg17
Nsg18
(tsg28
g71
stbatbsS'LKneePitch'
p1903
g3
(g4
(I0
tS'b'
tRp1904
(I1
(I4
I1
tg7
I00
(lp1905
g9
(g10
g11
NtRp1906
(dp1907
g14
(lp1908
sg16
I2908783783444553055
sg17
Nsg18
(g20
g9
(g19
g11
NtRp1909
(dp1910
g14
(lp1911
sg16
I-5602066592115065747
sg17
Nsg18
(g720
g113
g49
tp1912
sg28
g190
sg59
I01
sbg9
(g19
g11
NtRp1913
(dp1914
g14
(lp1915
sg16
I-3927140234421523742
sg17
Nsg18
(g9
(g23
g11
NtRp1916
((I1
S'19L'
I2
I5
t(dp1917
g26
I53
sg14
(lp1918
sg16
I-2346872259468522873
sg17
Nsg18
(tsg28
g71
stbg739
g167
g240
tp1919
sg28
g190
sg59
I01
sbg9
(g19
g11
NtRp1920
(dp1921
g14
(lp1922
sg16
I-1693517748023032228
sg17
Nsg18
(g9
(g23
g11
NtRp1923
((I1
S'19L'
I2
I5
t(dp1924
g26
I53
sg14
(lp1925
sg16
I-2346872259468522873
sg17
Nsg18
(tsg28
g71
stbg9
(g10
g11
NtRp1926
(dp1927
g14
(lp1928
sg16
I5392916605004339439
sg17
Nsg18
(g9
(g19
g11
NtRp1929
(dp1930
g14
(lp1931
sg16
I-7857441759513058990
sg17
Nsg18
(g9
(g23
g11
NtRp1932
((I0
S'1L'
I0
I1
t(dp1933
g26
I53
sg14
(lp1934
sg16
I-8838321674194594742
sg17
Nsg18
(tsg28
g71
stbg9
(g251
g11
NtRp1935
(dp1936
g14
(lp1937
sg17
Nsg18
(g9
(g91
g11
NtRp1938
(dp1939
g17
Nsg18
(g9
(g19
g11
NtRp1940
(dp1941
g14
(lp1942
sg16
I-1796842948335186318
sg17
Nsg18
(g9
(g23
g11
NtRp1943
((I0
S'1L'
I-1
I1
t(dp1944
g26
I53
sg14
(lp1945
sg16
I5953416778363468544
sg17
Nsg18
(tsg28
(dp1946
g176
I00
sg36
I00
sg40
I00
sg46
I00
sg38
I00
sg47
I01
sg177
I01
sg37
I01
sg178
I00
sg41
I01
sg45
I01
sg30
I01
sg31
I01
sg32
I01
sg33
I00
sg35
I00
sg42
I01
sg43
I00
sg44
I00
sg39
I00
sg179
I01
sg34
I00
sstbg9
(g51
g11
NtRp1947
(dp1948
g14
(lp1949
sg55
S'LHipYawPitch'
p1950
sg17
Nsg18
(tsg28
(dp1951
g58
I00
ssg59
I01
sg16
I-9000854917545762286
sbtp1952
sg28
(dp1953
g186
I00
ssg59
I01
sbtp1954
sg14
(lp1955
sg28
(dp1956
sg16
I1811371457701354951
sbg256
tp1957
sg28
(dp1958
sg59
I01
sg16
I-6782309775476576584
sbg846
tp1959
sg28
g190
sg59
I01
sbg9
(g19
g11
NtRp1960
(dp1961
g14
(lp1962
sg16
I97267791269969917
sg17
Nsg18
(g9
(g23
g11
NtRp1963
((I1
S'1L'
I0
I1
t(dp1964
g26
I53
sg14
(lp1965
sg16
I1652741725224645181
sg17
Nsg18
(tsg28
g71
stbg891
g9
(g48
g11
NtRp1966
(dp1967
g17
Nsg18
(g1940
tp1968
sg14
(lp1969
sg28
(dp1970
sg16
I9036829480292220964
sbtp1971
sg28
g190
sg59
I01
sbg9
(g19
g11
NtRp1972
(dp1973
g14
(lp1974
sg16
I2571120295912960609
sg17
Nsg18
(g9
(g23
g11
NtRp1975
((I0
S'1L'
I0
I1
t(dp1976
g26
I53
sg14
(lp1977
sg16
I-8838321674194594742
sg17
Nsg18
(tsg28
g71
stbg730
g1938
g1966
tp1978
sg28
g190
sg59
I01
sbtp1979
sg28
g278
sg59
I01
sbg9
(g48
g11
NtRp1980
(dp1981
g17
Nsg18
(g9
(g51
g11
NtRp1982
(dp1983
g14
(lp1984
sg55
S'LHipPitch'
p1985
sg17
Nsg18
(tsg28
g1951
sg59
I01
sg16
I-1025417800962826546
sbtp1986
sg14
(lp1987
sg28
g1970
sg16
I-2336448783462355752
sbtp1988
sg28
g190
sg59
I01
sbg9
(g19
g11
NtRp1989
(dp1990
g14
(lp1991
sg16
I-1450999946855445062
sg17
Nsg18
(g9
(g23
g11
NtRp1992
((I1
S'19L'
I2
I5
t(dp1993
g26
I53
sg14
(lp1994
sg16
I-2346872259468522873
sg17
Nsg18
(tsg28
g71
stbg9
(g10
g11
NtRp1995
(dp1996
g14
(lp1997
sg16
I-2506325190542859730
sg17
Nsg18
(g9
(g19
g11
NtRp1998
(dp1999
g14
(lp2000
sg16
I-8636956214595231928
sg17
Nsg18
(g9
(g23
g11
NtRp2001
((I1
S'1L'
I0
I1
t(dp2002
g26
I53
sg14
(lp2003
sg16
I1652741725224645181
sg17
Nsg18
(tsg28
g71
stbg9
(g10
g11
NtRp2004
(dp2005
g14
(lp2006
sg16
I3832976138206944945
sg17
Nsg18
(g9
(g19
g11
NtRp2007
(dp2008
g14
(lp2009
sg16
I1615402732359825083
sg17
Nsg18
(g9
(g23
g11
NtRp2010
((I0
S'1L'
I0
I1
t(dp2011
g26
I53
sg14
(lp2012
sg16
I-8838321674194594742
sg17
Nsg18
(tsg28
g71
stbg730
g1938
tp2013
sg28
g190
sg59
I01
sbg9
(g19
g11
NtRp2014
(dp2015
g14
(lp2016
sg16
I3555605419076953597
sg17
Nsg18
(g9
(g23
g11
NtRp2017
((I1
S'1L'
I0
I1
t(dp2018
g26
I53
sg14
(lp2019
sg16
I1652741725224645181
sg17
Nsg18
(tsg28
g71
stbg846
g1966
tp2020
sg28
g190
sg59
I01
sbtp2021
sg28
g278
sg59
I01
sbg9
(g48
g11
NtRp2022
(dp2023
g17
Nsg18
(g9
(g51
g11
NtRp2024
(dp2025
g14
(lp2026
sg55
S'LHipRoll'
p2027
sg17
Nsg18
(tsg28
g1951
sg59
I01
sg16
I7920519214839408190
sbtp2028
sg14
(lp2029
sg28
g1970
sg16
I-3599670680473769592
sbtp2030
sg28
g190
sg59
I01
sbg9
(g19
g11
NtRp2031
(dp2032
g14
(lp2033
sg16
I565610185550395201
sg17
Nsg18
(g9
(g23
g11
NtRp2034
((I0
S'1L'
I0
I1
t(dp2035
g26
I53
sg14
(lp2036
sg16
I-8838321674194594742
sg17
Nsg18
(tsg28
g71
stbg9
(g10
g11
NtRp2037
(dp2038
g14
(lp2039
sg16
I-8545402679874148
sg17
Nsg18
(g9
(g19
g11
NtRp2040
(dp2041
g14
(lp2042
sg16
I-5080188537874571541
sg17
Nsg18
(g9
(g23
g11
NtRp2043
((I0
S'1L'
I0
I1
t(dp2044
g26
I53
sg14
(lp2045
sg16
I-8838321674194594742
sg17
Nsg18
(tsg28
g71
stbg9
(g251
g11
NtRp2046
(dp2047
g14
(lp2048
sg17
Nsg18
(g1966
g256
tp2049
sg28
g1958
sg59
I01
sg16
I-3657261253759895781
sbg730
tp2050
sg28
g190
sg59
I01
sbg9
(g19
g11
NtRp2051
(dp2052
g14
(lp2053
sg16
I-2591335405294129291
sg17
Nsg18
(g9
(g23
g11
NtRp2054
((I0
S'1L'
I0
I1
t(dp2055
g26
I53
sg14
(lp2056
sg16
I-8838321674194594742
sg17
Nsg18
(tsg28
g71
stbg891
g1938
tp2057
sg28
g190
sg59
I01
sbg9
(g19
g11
NtRp2058
(dp2059
g14
(lp2060
sg16
I4510934445855742151
sg17
Nsg18
(g9
(g23
g11
NtRp2061
((I0
S'1L'
I0
I1
t(dp2062
g26
I53
sg14
(lp2063
sg16
I-8838321674194594742
sg17
Nsg18
(tsg28
g71
stbg846
g1938
g1966
tp2064
sg28
g190
sg59
I01
sbtp2065
sg28
g278
sg59
I01
sbg9
(g91
g11
NtRp2066
(dp2067
g17
Nsg18
(g2024
tp2068
sg14
(lp2069
sg28
g1956
sg16
I-4835345116878781013
sbtp2070
sg28
g190
sg59
I01
sbtp2071
sg28
g278
sg59
I01
sbg9
(g91
g11
NtRp2072
(dp2073
g17
Nsg18
(g1982
tp2074
sg14
(lp2075
sg28
g1956
sg16
I-3633416237076625541
sbtp2076
sg28
g190
sg59
I01
sbg9
(g19
g11
NtRp2077
(dp2078
g14
(lp2079
sg16
I-134860607654577693
sg17
Nsg18
(g9
(g23
g11
NtRp2080
((I0
S'19L'
I2
I5
t(dp2081
g26
I53
sg14
(lp2082
sg16
I-3718610978853045224
sg17
Nsg18
(tsg28
g71
stbg800
g222
tp2083
sg28
g190
sg59
I01
sbg9
(g19
g11
NtRp2084
(dp2085
g14
(lp2086
sg16
I3960466736704400709
sg17
Nsg18
(g951
g92
g97
tp2087
sg28
g190
sg59
I01
sbtp2088
sg28
g278
sg59
I01
sbag9
(g10
g11
NtRp2089
(dp2090
g14
(lp2091
sg16
I2955165008502264441
sg17
Nsg18
(g9
(g19
g11
NtRp2092
(dp2093
g14
(lp2094
sg16
I-2344065559300548877
sg17
Nsg18
(g9
(g23
g11
NtRp2095
((I1
S'19L'
I2
I5
t(dp2096
g26
I53
sg14
(lp2097
sg16
I-2346872259468522873
sg17
Nsg18
(tsg28
g71
stbg9
(g10
g11
NtRp2098
(dp2099
g14
(lp2100
sg16
I-3194262089515517004
sg17
Nsg18
(g9
(g19
g11
NtRp2101
(dp2102
g14
(lp2103
sg16
I-8500196942669921205
sg17
Nsg18
(g9
(g23
g11
NtRp2104
((I0
S'1L'
I0
I1
t(dp2105
g26
I53
sg14
(lp2106
sg16
I-8838321674194594742
sg17
Nsg18
(tsg28
g71
stbg1935
g986
tp2107
sg28
g190
sg59
I01
sbg9
(g19
g11
NtRp2108
(dp2109
g14
(lp2110
sg16
I-1257945131733784166
sg17
Nsg18
(g9
(g23
g11
NtRp2111
((I0
S'1L'
I0
I1
t(dp2112
g26
I53
sg14
(lp2113
sg16
I-8838321674194594742
sg17
Nsg18
(tsg28
g71
stbg1147
g1938
g1966
tp2114
sg28
g190
sg59
I01
sbg9
(g19
g11
NtRp2115
(dp2116
g14
(lp2117
sg16
I5930947393398695484
sg17
Nsg18
(g9
(g23
g11
NtRp2118
((I1
S'1L'
I0
I1
t(dp2119
g26
I53
sg14
(lp2120
sg16
I1652741725224645181
sg17
Nsg18
(tsg28
g71
stbg1200
g1966
tp2121
sg28
g190
sg59
I01
sbtp2122
sg28
g278
sg59
I01
sbg1980
tp2123
sg28
g190
sg59
I01
sbg9
(g19
g11
NtRp2124
(dp2125
g14
(lp2126
sg16
I-353476224098118901
sg17
Nsg18
(g9
(g23
g11
NtRp2127
((I0
S'19L'
I2
I5
t(dp2128
g26
I53
sg14
(lp2129
sg16
I-3718610978853045224
sg17
Nsg18
(tsg28
g71
stbg1056
g167
tp2130
sg28
g190
sg59
I01
sbg9
(g19
g11
NtRp2131
(dp2132
g14
(lp2133
sg16
I405894300130032289
sg17
Nsg18
(g1130
g92
g113
g330
tp2134
sg28
g190
sg59
I01
sbg9
(g19
g11
NtRp2135
(dp2136
g14
(lp2137
sg16
I563910896583493480
sg17
Nsg18
(g1137
g49
g330
g97
tp2138
sg28
g190
sg59
I01
sbg9
(g19
g11
NtRp2139
(dp2140
g14
(lp2141
sg16
I3951041701381161183
sg17
Nsg18
(g1169
g92
g330
tp2142
sg28
g190
sg59
I01
sbg9
(g19
g11
NtRp2143
(dp2144
g14
(lp2145
sg16
I3995120225593037497
sg17
Nsg18
(g9
(g23
g11
NtRp2146
((I0
S'19L'
I2
I5
t(dp2147
g26
I53
sg14
(lp2148
sg16
I-3718610978853045224
sg17
Nsg18
(tsg28
g71
stbg995
g222
tp2149
sg28
g190
sg59
I01
sbg9
(g19
g11
NtRp2150
(dp2151
g14
(lp2152
sg16
I6833995330670770075
sg17
Nsg18
(g9
(g23
g11
NtRp2153
((I1
S'19L'
I2
I5
t(dp2154
g26
I53
sg14
(lp2155
sg16
I-2346872259468522873
sg17
Nsg18
(tsg28
g71
stbg9
(g10
g11
NtRp2156
(dp2157
g14
(lp2158
sg16
I5637119220383743763
sg17
Nsg18
(g9
(g19
g11
NtRp2159
(dp2160
g14
(lp2161
sg16
I-2655893953302726268
sg17
Nsg18
(g9
(g23
g11
NtRp2162
((I1
S'1L'
I0
I1
t(dp2163
g26
I53
sg14
(lp2164
sg16
I1652741725224645181
sg17
Nsg18
(tsg28
g71
stbg9
(g10
g11
NtRp2165
(dp2166
g14
(lp2167
sg16
I-1746687995517264451
sg17
Nsg18
(g9
(g19
g11
NtRp2168
(dp2169
g14
(lp2170
sg16
I-8030876400373337888
sg17
Nsg18
(g9
(g23
g11
NtRp2171
((I0
S'1L'
I0
I1
t(dp2172
g26
I53
sg14
(lp2173
sg16
I-8838321674194594742
sg17
Nsg18
(tsg28
g71
stbg1147
g1938
tp2174
sg28
g190
sg59
I01
sbg9
(g19
g11
NtRp2175
(dp2176
g14
(lp2177
sg16
I4731153875186206000
sg17
Nsg18
(g9
(g23
g11
NtRp2178
((I1
S'1L'
I0
I1
t(dp2179
g26
I53
sg14
(lp2180
sg16
I1652741725224645181
sg17
Nsg18
(tsg28
g71
stbg986
g1966
tp2181
sg28
g190
sg59
I01
sbtp2182
sg28
g278
sg59
I01
sbg2022
tp2183
sg28
g190
sg59
I01
sbg9
(g19
g11
NtRp2184
(dp2185
g14
(lp2186
sg16
I1377555214045915614
sg17
Nsg18
(g9
(g23
g11
NtRp2187
((I0
S'1L'
I0
I1
t(dp2188
g26
I53
sg14
(lp2189
sg16
I-8838321674194594742
sg17
Nsg18
(tsg28
g71
stbg9
(g10
g11
NtRp2190
(dp2191
g14
(lp2192
sg16
I-178419496426986977
sg17
Nsg18
(g9
(g19
g11
NtRp2193
(dp2194
g14
(lp2195
sg16
I-5412613030820022470
sg17
Nsg18
(g9
(g23
g11
NtRp2196
((I0
S'1L'
I0
I1
t(dp2197
g26
I53
sg14
(lp2198
sg16
I-8838321674194594742
sg17
Nsg18
(tsg28
g71
stbg986
g1938
g1966
tp2199
sg28
g190
sg59
I01
sbg9
(g19
g11
NtRp2200
(dp2201
g14
(lp2202
sg16
I-4614003236583715116
sg17
Nsg18
(g9
(g23
g11
NtRp2203
((I0
S'1L'
I0
I1
t(dp2204
g26
I53
sg14
(lp2205
sg16
I-8838321674194594742
sg17
Nsg18
(tsg28
g71
stbg1200
g1938
tp2206
sg28
g190
sg59
I01
sbg9
(g19
g11
NtRp2207
(dp2208
g14
(lp2209
sg16
I-916168208129717524
sg17
Nsg18
(g9
(g23
g11
NtRp2210
((I0
S'1L'
I0
I1
t(dp2211
g26
I53
sg14
(lp2212
sg16
I-8838321674194594742
sg17
Nsg18
(tsg28
g71
stbg2046
g1147
tp2213
sg28
g190
sg59
I01
sbtp2214
sg28
g278
sg59
I01
sbg2066
tp2215
sg28
g190
sg59
I01
sbtp2216
sg28
g278
sg59
I01
sbg2072
tp2217
sg28
g190
sg59
I01
sbtp2218
sg28
g278
sg59
I01
sbag9
(g10
g11
NtRp2219
(dp2220
g14
(lp2221
sg16
I-563853386520346254
sg17
Nsg18
(g9
(g19
g11
NtRp2222
(dp2223
g14
(lp2224
sg16
I-7633701743411601647
sg17
Nsg18
(g9
(g23
g11
NtRp2225
((I1
S'19L'
I2
I5
t(dp2226
g26
I53
sg14
(lp2227
sg16
I-2346872259468522873
sg17
Nsg18
(tsg28
g71
stbg9
(g10
g11
NtRp2228
(dp2229
g14
(lp2230
sg16
I-1529524702597540719
sg17
Nsg18
(g9
(g19
g11
NtRp2231
(dp2232
g14
(lp2233
sg16
I-696628210533519198
sg17
Nsg18
(g9
(g23
g11
NtRp2234
((I0
S'1L'
I0
I1
t(dp2235
g26
I53
sg14
(lp2236
sg16
I-8838321674194594742
sg17
Nsg18
(tsg28
g71
stbg9
(g10
g11
NtRp2237
(dp2238
g14
(lp2239
sg16
I-2744815241209764757
sg17
Nsg18
(g9
(g19
g11
NtRp2240
(dp2241
g14
(lp2242
sg16
I-5248672845545699554
sg17
Nsg18
(g9
(g23
g11
NtRp2243
((I0
S'1L'
I0
I1
t(dp2244
g26
I53
sg14
(lp2245
sg16
I-8838321674194594742
sg17
Nsg18
(tsg28
g71
stbg1470
g1938
tp2246
sg28
g190
sg59
I01
sbg9
(g19
g11
NtRp2247
(dp2248
g14
(lp2249
sg16
I32429314095824620
sg17
Nsg18
(g9
(g23
g11
NtRp2250
((I0
S'1L'
I0
I1
t(dp2251
g26
I53
sg14
(lp2252
sg16
I-8838321674194594742
sg17
Nsg18
(tsg28
g71
stbg2046
g1282
tp2253
sg28
g190
sg59
I01
sbg9
(g19
g11
NtRp2254
(dp2255
g14
(lp2256
sg16
I4530929504454903820
sg17
Nsg18
(g9
(g23
g11
NtRp2257
((I0
S'1L'
I0
I1
t(dp2258
g26
I53
sg14
(lp2259
sg16
I-8838321674194594742
sg17
Nsg18
(tsg28
g71
stbg1397
g1938
g1966
tp2260
sg28
g190
sg59
I01
sbtp2261
sg28
g278
sg59
I01
sbg2066
tp2262
sg28
g190
sg59
I01
sbg9
(g19
g11
NtRp2263
(dp2264
g14
(lp2265
sg16
I-218721825136436062
sg17
Nsg18
(g9
(g23
g11
NtRp2266
((I1
S'1L'
I0
I1
t(dp2267
g26
I53
sg14
(lp2268
sg16
I1652741725224645181
sg17
Nsg18
(tsg28
g71
stbg9
(g10
g11
NtRp2269
(dp2270
g14
(lp2271
sg16
I-576651685174206477
sg17
Nsg18
(g9
(g19
g11
NtRp2272
(dp2273
g14
(lp2274
sg16
I5331878483844410902
sg17
Nsg18
(g9
(g23
g11
NtRp2275
((I1
S'1L'
I0
I1
t(dp2276
g26
I53
sg14
(lp2277
sg16
I1652741725224645181
sg17
Nsg18
(tsg28
g71
stbg1397
g1966
tp2278
sg28
g190
sg59
I01
sbg9
(g19
g11
NtRp2279
(dp2280
g14
(lp2281
sg16
I6424384634554021088
sg17
Nsg18
(g9
(g23
g11
NtRp2282
((I0
S'1L'
I0
I1
t(dp2283
g26
I53
sg14
(lp2284
sg16
I-8838321674194594742
sg17
Nsg18
(tsg28
g71
stbg1282
g1938
tp2285
sg28
g190
sg59
I01
sbtp2286
sg28
g278
sg59
I01
sbg2022
tp2287
sg28
g190
sg59
I01
sbtp2288
sg28
g278
sg59
I01
sbg2072
tp2289
sg28
g190
sg59
I01
sbg9
(g19
g11
NtRp2290
(dp2291
g14
(lp2292
sg16
I-6470825772365540985
sg17
Nsg18
(g9
(g23
g11
NtRp2293
((I1
S'19L'
I2
I5
t(dp2294
g26
I53
sg14
(lp2295
sg16
I-2346872259468522873
sg17
Nsg18
(tsg28
g71
stbg9
(g10
g11
NtRp2296
(dp2297
g14
(lp2298
sg16
I-151523203947407720
sg17
Nsg18
(g9
(g19
g11
NtRp2299
(dp2300
g14
(lp2301
sg16
I-7195871743366011050
sg17
Nsg18
(g9
(g23
g11
NtRp2302
((I1
S'1L'
I0
I1
t(dp2303
g26
I53
sg14
(lp2304
sg16
I1652741725224645181
sg17
Nsg18
(tsg28
g71
stbg1470
g1966
tp2305
sg28
g190
sg59
I01
sbg9
(g19
g11
NtRp2306
(dp2307
g14
(lp2308
sg16
I6993848750825428781
sg17
Nsg18
(g9
(g23
g11
NtRp2309
((I0
S'1L'
I0
I1
t(dp2310
g26
I53
sg14
(lp2311
sg16
I-8838321674194594742
sg17
Nsg18
(tsg28
g71
stbg1935
g1397
tp2312
sg28
g190
sg59
I01
sbg9
(g19
g11
NtRp2313
(dp2314
g14
(lp2315
sg16
I9221531248702762394
sg17
Nsg18
(g9
(g23
g11
NtRp2316
((I0
S'1L'
I0
I1
t(dp2317
g26
I53
sg14
(lp2318
sg16
I-8838321674194594742
sg17
Nsg18
(tsg28
g71
stbg1282
g1938
g1966
tp2319
sg28
g190
sg59
I01
sbtp2320
sg28
g278
sg59
I01
sbg1980
tp2321
sg28
g190
sg59
I01
sbg9
(g19
g11
NtRp2322
(dp2323
g14
(lp2324
sg16
I-4130610163163382853
sg17
Nsg18
(g1272
g297
g49
g97
tp2325
sg28
g190
sg59
I01
sbg9
(g19
g11
NtRp2326
(dp2327
g14
(lp2328
sg16
I-1922993852186390425
sg17
Nsg18
(g9
(g23
g11
NtRp2329
((I0
S'19L'
I2
I5
t(dp2330
g26
I53
sg14
(lp2331
sg16
I-3718610978853045224
sg17
Nsg18
(tsg28
g71
stbg1291
g222
tp2332
sg28
g190
sg59
I01
sbg9
(g19
g11
NtRp2333
(dp2334
g14
(lp2335
sg16
I-508443358997831115
sg17
Nsg18
(g9
(g23
g11
NtRp2336
((I0
S'19L'
I2
I5
t(dp2337
g26
I53
sg14
(lp2338
sg16
I-3718610978853045224
sg17
Nsg18
(tsg28
g71
stbg1352
g167
tp2339
sg28
g190
sg59
I01
sbg9
(g19
g11
NtRp2340
(dp2341
g14
(lp2342
sg16
I552476898296133408
sg17
Nsg18
(g1451
g92
g297
tp2343
sg28
g190
sg59
I01
sbg9
(g19
g11
NtRp2344
(dp2345
g14
(lp2346
sg16
I8105391505651946570
sg17
Nsg18
(g1529
g92
g297
g113
tp2347
sg28
g190
sg59
I01
sbtp2348
sg28
g278
sg59
I01
sbag9
(g23
g11
NtRp2349
((I0
S'1L'
I0
I1
t(dp2350
g26
I53
sg14
(lp2351
sg16
Nsg17
Nsg18
(tsg28
g71
stbatbsS'RAnkleRoll'
p2352
g3
(g4
(I0
tS'b'
tRp2353
(I1
(I4
I1
tg7
I00
(lp2354
g9
(csympy.core.numbers
Zero
p2355
g11
NtRp2356
(dp2357
S'q'
I1
sS'p'
I0
sg14
(lp2358
sg16
I-3157700006611994746
sg17
Nsg18
(tsg28
(dp2359
S'nonpositive'
p2360
I01
sg36
I00
sS'zero'
p2361
I01
sS'odd'
p2362
I00
sS'even'
p2363
I01
sg47
I01
sS'positive'
p2364
I00
sS'noninteger'
p2365
I00
sS'negative'
p2366
I00
sg41
I01
sS'rational'
p2367
I01
sS'finite'
p2368
I00
sg260
I01
sS'nonzero'
p2369
I00
sg32
I01
sS'irrational'
p2370
I00
sS'composite'
p2371
I00
sg42
I01
sS'integer'
p2372
I01
sg44
I00
sS'prime'
p2373
I00
sg179
I01
sS'infinitesimal'
p2374
I01
ssbag2356
ag2356
ag9
(csympy.core.numbers
One
p2375
g11
NtRp2376
(dp2377
S'q'
I1
sS'p'
I1
sg14
(lp2378
sg16
I-237126060543571952
sg17
Nsg18
(tsg28
(dp2379
S'prime'
p2380
I01
sS'real'
p2381
I01
sg32
I01
sg45
I01
sg47
I01
sg34
I00
sS'nonpositive'
p2382
I00
sS'composite'
p2383
I00
sS'positive'
p2384
I01
sS'noninteger'
p2385
I00
sS'negative'
p2386
I00
sg179
I01
sS'zero'
p2387
I00
sS'complex'
p2388
I01
sg42
I01
sg2367
I01
sg36
I00
sg2372
I01
sS'imaginary'
p2389
I00
sg261
I01
sS'irrational'
p2390
I00
ssbatbsS'LShoulderRoll'
p2391
g3
(g4
(I0
tS'b'
tRp2392
(I1
(I4
I1
tg7
I00
(lp2393
g1726
ag1780
ag1840
ag9
(g23
g11
NtRp2394
((I0
S'1L'
I0
I1
t(dp2395
g26
I53
sg14
(lp2396
sg16
Nsg17
Nsg18
(tsg28
g71
stbatbsS'LHipPitch'
p2397
g3
(g4
(I0
tS'b'
tRp2398
(I1
(I4
I1
tg7
I00
(lp2399
g9
(g10
g11
NtRp2400
(dp2401
g14
(lp2402
sg16
I6897437065652171763
sg17
Nsg18
(g20
g9
(g19
g11
NtRp2403
(dp2404
g14
(lp2405
sg16
I-5602066592115065747
sg17
Nsg18
(g9
(g23
g11
NtRp2406
((I1
S'19L'
I2
I5
t(dp2407
g26
I53
sg14
(lp2408
sg16
I-2346872259468522873
sg17
Nsg18
(tsg28
(dp2409
g30
I01
sg31
I01
sg32
I01
sg33
I00
sg35
I00
sg36
I00
sg46
I00
sg37
I01
sg41
I01
sg39
I00
sg40
I00
sg34
I00
sg42
I01
sg43
I00
sg44
I00
sg45
I01
sg38
I00
sg47
I01
sstbg113
g49
tp2410
sg28
g190
sg59
I01
sbg9
(g19
g11
NtRp2411
(dp2412
g14
(lp2413
sg16
I-3927140234421523742
sg17
Nsg18
(g9
(g23
g11
NtRp2414
((I1
S'19L'
I2
I5
t(dp2415
g26
I53
sg14
(lp2416
sg16
I-2346872259468522873
sg17
Nsg18
(tsg28
g71
stbg739
g167
g240
tp2417
sg28
g190
sg59
I01
sbg9
(g19
g11
NtRp2418
(dp2419
g14
(lp2420
sg16
I-134860607654577693
sg17
Nsg18
(g9
(g23
g11
NtRp2421
((I0
S'19L'
I2
I5
t(dp2422
g26
I53
sg14
(lp2423
sg16
I-3718610978853045224
sg17
Nsg18
(tsg28
g71
stbg800
g222
tp2424
sg28
g190
sg59
I01
sbg9
(g19
g11
NtRp2425
(dp2426
g14
(lp2427
sg16
I3960466736704400709
sg17
Nsg18
(g9
(g23
g11
NtRp2428
((I1
S'19L'
I2
I5
t(dp2429
g26
I53
sg14
(lp2430
sg16
I-2346872259468522873
sg17
Nsg18
(tsg28
g2409
stbg92
g97
tp2431
sg28
g190
sg59
I01
sbtp2432
sg28
g278
sg59
I01
sbag9
(g10
g11
NtRp2433
(dp2434
g14
(lp2435
sg16
I1513596350200350163
sg17
Nsg18
(g9
(g19
g11
NtRp2436
(dp2437
g14
(lp2438
sg16
I-353476224098118901
sg17
Nsg18
(g9
(g23
g11
NtRp2439
((I0
S'19L'
I2
I5
t(dp2440
g26
I53
sg14
(lp2441
sg16
I-3718610978853045224
sg17
Nsg18
(tsg28
g71
stbg1056
g167
tp2442
sg28
g190
sg59
I01
sbg9
(g19
g11
NtRp2443
(dp2444
g14
(lp2445
sg16
I405894300130032289
sg17
Nsg18
(g9
(g23
g11
NtRp2446
((I0
S'19L'
I2
I5
t(dp2447
g26
I53
sg14
(lp2448
sg16
I-3718610978853045224
sg17
Nsg18
(tsg28
g2409
stbg92
g113
g330
tp2449
sg28
g190
sg59
I01
sbg9
(g19
g11
NtRp2450
(dp2451
g14
(lp2452
sg16
I563910896583493480
sg17
Nsg18
(g9
(g23
g11
NtRp2453
((I1
S'19L'
I2
I5
t(dp2454
g26
I53
sg14
(lp2455
sg16
I-2346872259468522873
sg17
Nsg18
(tsg28
g2409
stbg49
g330
g97
tp2456
sg28
g190
sg59
I01
sbg9
(g19
g11
NtRp2457
(dp2458
g14
(lp2459
sg16
I3951041701381161183
sg17
Nsg18
(g9
(g23
g11
NtRp2460
((I0
S'cdccccccccccdL'
I-45
I52
t(dp2461
g26
I53
sg14
(lp2462
sg16
I-2031544583562847888
sg17
Nsg18
(tsg28
g2409
stbg92
g330
tp2463
sg28
g190
sg59
I01
sbg9
(g19
g11
NtRp2464
(dp2465
g14
(lp2466
sg16
I3995120225593037497
sg17
Nsg18
(g9
(g23
g11
NtRp2467
((I0
S'19L'
I2
I5
t(dp2468
g26
I53
sg14
(lp2469
sg16
I-3718610978853045224
sg17
Nsg18
(tsg28
g71
stbg995
g222
tp2470
sg28
g190
sg59
I01
sbtp2471
sg28
g278
sg59
I01
sbag9
(g10
g11
NtRp2472
(dp2473
g14
(lp2474
sg16
I5894382518420252752
sg17
Nsg18
(g9
(g19
g11
NtRp2475
(dp2476
g14
(lp2477
sg16
I-4130610163163382853
sg17
Nsg18
(g9
(g23
g11
NtRp2478
((I1
S'19L'
I2
I5
t(dp2479
g26
I53
sg14
(lp2480
sg16
I-2346872259468522873
sg17
Nsg18
(tsg28
g2409
stbg297
g49
g97
tp2481
sg28
g190
sg59
I01
sbg9
(g19
g11
NtRp2482
(dp2483
g14
(lp2484
sg16
I-1922993852186390425
sg17
Nsg18
(g9
(g23
g11
NtRp2485
((I0
S'19L'
I2
I5
t(dp2486
g26
I53
sg14
(lp2487
sg16
I-3718610978853045224
sg17
Nsg18
(tsg28
g71
stbg1291
g222
tp2488
sg28
g190
sg59
I01
sbg9
(g19
g11
NtRp2489
(dp2490
g14
(lp2491
sg16
I-508443358997831115
sg17
Nsg18
(g9
(g23
g11
NtRp2492
((I0
S'19L'
I2
I5
t(dp2493
g26
I53
sg14
(lp2494
sg16
I-3718610978853045224
sg17
Nsg18
(tsg28
g71
stbg1352
g167
tp2495
sg28
g190
sg59
I01
sbg9
(g19
g11
NtRp2496
(dp2497
g14
(lp2498
sg16
I552476898296133408
sg17
Nsg18
(g9
(g23
g11
NtRp2499
((I0
S'cdccccccccccdL'
I-45
I52
t(dp2500
g26
I53
sg14
(lp2501
sg16
I-2031544583562847888
sg17
Nsg18
(tsg28
g2409
stbg92
g297
tp2502
sg28
g190
sg59
I01
sbg9
(g19
g11
NtRp2503
(dp2504
g14
(lp2505
sg16
I8105391505651946570
sg17
Nsg18
(g9
(g23
g11
NtRp2506
((I0
S'19L'
I2
I5
t(dp2507
g26
I53
sg14
(lp2508
sg16
I-3718610978853045224
sg17
Nsg18
(tsg28
g2409
stbg92
g297
g113
tp2509
sg28
g190
sg59
I01
sbtp2510
sg28
g278
sg59
I01
sbag9
(g23
g11
NtRp2511
((I0
S'1L'
I0
I1
t(dp2512
g26
I53
sg14
(lp2513
sg16
Nsg17
Nsg18
(tsg28
g71
stbatbsS'LElbowYaw'
p2514
g3
(g4
(I0
tS'b'
tRp2515
(I1
(I4
I1
tg7
I00
(lp2516
g9
(g10
g11
NtRp2517
(dp2518
g14
(lp2519
sg16
I6865928604411318772
sg17
Nsg18
(g9
(g19
g11
NtRp2520
(dp2521
g14
(lp2522
sg16
I-8462201954174263051
sg17
Nsg18
(g9
(g23
g11
NtRp2523
((I0
S'69L'
I0
I7
t(dp2524
g26
I53
sg14
(lp2525
sg16
I2601078411346328320
sg17
Nsg18
(tsg28
g71
stbg846
g9
(g91
g11
NtRp2526
(dp2527
g17
Nsg18
(g9
(g51
g11
NtRp2528
(dp2529
g14
(lp2530
sg55
g1723
sg17
Nsg18
(tsg28
g826
sg59
I01
sg16
I7715222874941473404
sbtp2531
sg14
(lp2532
sg28
g829
sg16
I3163711631895270309
sbtp2533
sg28
g190
sg59
I01
sbg20
g9
(g19
g11
NtRp2534
(dp2535
g14
(lp2536
sg16
I-7570417696432241723
sg17
Nsg18
(g713
g72
g159
g167
tp2537
sg28
g190
sg59
I01
sbg9
(g19
g11
NtRp2538
(dp2539
g14
(lp2540
sg16
I-6574527807095948127
sg17
Nsg18
(g9
(g23
g11
NtRp2541
((I0
S'fL'
I0
I4
t(dp2542
g26
I53
sg14
(lp2543
sg16
I-2502376452925460751
sg17
Nsg18
(tsg28
g71
stbg9
(g10
g11
NtRp2544
(dp2545
g14
(lp2546
sg16
I2374192714379511482
sg17
Nsg18
(g9
(g19
g11
NtRp2547
(dp2548
g14
(lp2549
sg16
I-3700669278058822809
sg17
Nsg18
(g9
(g23
g11
NtRp2550
((I0
S'1L'
I0
I1
t(dp2551
g26
I53
sg14
(lp2552
sg16
I-8838321674194594742
sg17
Nsg18
(tsg28
g71
stbg891
g2526
tp2553
sg28
g190
sg59
I01
sbg9
(g19
g11
NtRp2554
(dp2555
g14
(lp2556
sg16
I3804889142250282416
sg17
Nsg18
(g9
(g23
g11
NtRp2557
((I0
S'1L'
I0
I1
t(dp2558
g26
I53
sg14
(lp2559
sg16
I-8838321674194594742
sg17
Nsg18
(tsg28
g71
stbg846
g9
(g48
g11
NtRp2560
(dp2561
g17
Nsg18
(g2528
tp2562
sg14
(lp2563
sg28
g883
sg16
I8135503398396216834
sbtp2564
sg28
g190
sg59
I01
sbtp2565
sg28
g278
sg59
I01
sbg9
(g48
g11
NtRp2566
(dp2567
g17
Nsg18
(g9
(g51
g11
NtRp2568
(dp2569
g14
(lp2570
sg55
g2391
sg17
Nsg18
(tsg28
g826
sg59
I01
sg16
I5418325287043562236
sbtp2571
sg14
(lp2572
sg28
g883
sg16
I501360263167639426
sbtp2573
sg28
g190
sg59
I01
sbg9
(g19
g11
NtRp2574
(dp2575
g14
(lp2576
sg16
I-5862754889588865304
sg17
Nsg18
(g9
(g23
g11
NtRp2577
((I0
S'25L'
I2
I6
t(dp2578
g26
I53
sg14
(lp2579
sg16
I7839484899910388231
sg17
Nsg18
(tsg28
g71
stbg204
g222
tp2580
sg28
g190
sg59
I01
sbg9
(g19
g11
NtRp2581
(dp2582
g14
(lp2583
sg16
I-5602066592115065747
sg17
Nsg18
(g720
g113
g49
tp2584
sg28
g190
sg59
I01
sbg9
(g19
g11
NtRp2585
(dp2586
g14
(lp2587
sg16
I-3639004525552130269
sg17
Nsg18
(g9
(g23
g11
NtRp2588
((I1
S'25L'
I2
I6
t(dp2589
g26
I53
sg14
(lp2590
sg16
I5888801430113040896
sg17
Nsg18
(tsg28
g71
stbg72
g167
g240
tp2591
sg28
g190
sg59
I01
sbg9
(g19
g11
NtRp2592
(dp2593
g14
(lp2594
sg16
I-3169793031745154311
sg17
Nsg18
(g9
(g23
g11
NtRp2595
((I1
S'69L'
I0
I7
t(dp2596
g26
I53
sg14
(lp2597
sg16
I60220716336317631
sg17
Nsg18
(tsg28
g71
stbg891
g2560
tp2598
sg28
g190
sg59
I01
sbg9
(g19
g11
NtRp2599
(dp2600
g14
(lp2601
sg16
I-300626685300637712
sg17
Nsg18
(g930
g204
g167
g222
tp2602
sg28
g190
sg59
I01
sbg9
(g19
g11
NtRp2603
(dp2604
g14
(lp2605
sg16
I3960466736704400709
sg17
Nsg18
(g951
g92
g97
tp2606
sg28
g190
sg59
I01
sbg9
(g19
g11
NtRp2607
(dp2608
g14
(lp2609
sg16
I8312396885552945895
sg17
Nsg18
(g972
g252
g72
g240
tp2610
sg28
g190
sg59
I01
sbg9
(g19
g11
NtRp2611
(dp2612
g14
(lp2613
sg16
I9006760021179765478
sg17
Nsg18
(g9
(g23
g11
NtRp2614
((I0
S'fL'
I0
I4
t(dp2615
g26
I53
sg14
(lp2616
sg16
I-2502376452925460751
sg17
Nsg18
(tsg28
g71
stbg730
g9
(g91
g11
NtRp2617
(dp2618
g17
Nsg18
(g2568
tp2619
sg14
(lp2620
sg28
g829
sg16
I8289822065693153829
sbtp2621
sg28
g190
sg59
I01
sbtp2622
sg28
g278
sg59
I01
sbag9
(g10
g11
NtRp2623
(dp2624
g14
(lp2625
sg16
I6642519081184570356
sg17
Nsg18
(g9
(g19
g11
NtRp2626
(dp2627
g14
(lp2628
sg16
I-8457088500774360200
sg17
Nsg18
(g9
(g23
g11
NtRp2629
((I0
S'25L'
I2
I6
t(dp2630
g26
I53
sg14
(lp2631
sg16
I7839484899910388231
sg17
Nsg18
(tsg28
g71
stbg379
g167
tp2632
sg28
g190
sg59
I01
sbg9
(g19
g11
NtRp2633
(dp2634
g14
(lp2635
sg16
I-7845748222798733166
sg17
Nsg18
(g9
(g23
g11
NtRp2636
((I0
S'25L'
I2
I6
t(dp2637
g26
I53
sg14
(lp2638
sg16
I7839484899910388231
sg17
Nsg18
(tsg28
g71
stbg404
g222
tp2639
sg28
g190
sg59
I01
sbg9
(g19
g11
NtRp2640
(dp2641
g14
(lp2642
sg16
I-2113672988015347136
sg17
Nsg18
(g9
(g23
g11
NtRp2643
((I0
S'69L'
I0
I7
t(dp2644
g26
I53
sg14
(lp2645
sg16
I2601078411346328320
sg17
Nsg18
(tsg28
g71
stbg986
g2526
tp2646
sg28
g190
sg59
I01
sbg9
(g19
g11
NtRp2647
(dp2648
g14
(lp2649
sg16
I348641681935028661
sg17
Nsg18
(g9
(g23
g11
NtRp2650
((I0
S'fL'
I0
I4
t(dp2651
g26
I53
sg14
(lp2652
sg16
I-2502376452925460751
sg17
Nsg18
(tsg28
g71
stbg1147
g2617
tp2653
sg28
g190
sg59
I01
sbg9
(g19
g11
NtRp2654
(dp2655
g14
(lp2656
sg16
I405894300130032289
sg17
Nsg18
(g1130
g92
g113
g330
tp2657
sg28
g190
sg59
I01
sbg9
(g19
g11
NtRp2658
(dp2659
g14
(lp2660
sg16
I563910896583493480
sg17
Nsg18
(g1137
g49
g330
g97
tp2661
sg28
g190
sg59
I01
sbg9
(g19
g11
NtRp2662
(dp2663
g14
(lp2664
sg16
I3951041701381161183
sg17
Nsg18
(g1169
g92
g330
tp2665
sg28
g190
sg59
I01
sbg9
(g19
g11
NtRp2666
(dp2667
g14
(lp2668
sg16
I5604670137009848873
sg17
Nsg18
(g1176
g288
g167
tp2669
sg28
g190
sg59
I01
sbg9
(g19
g11
NtRp2670
(dp2671
g14
(lp2672
sg16
I5994762192344707091
sg17
Nsg18
(g9
(g23
g11
NtRp2673
((I0
S'fL'
I0
I4
t(dp2674
g26
I53
sg14
(lp2675
sg16
I-2502376452925460751
sg17
Nsg18
(tsg28
g71
stbg9
(g10
g11
NtRp2676
(dp2677
g14
(lp2678
sg16
I152954331691943840
sg17
Nsg18
(g9
(g19
g11
NtRp2679
(dp2680
g14
(lp2681
sg16
I-2590733872788745402
sg17
Nsg18
(g9
(g23
g11
NtRp2682
((I0
S'1L'
I0
I1
t(dp2683
g26
I53
sg14
(lp2684
sg16
I-8838321674194594742
sg17
Nsg18
(tsg28
g71
stbg1200
g2526
tp2685
sg28
g190
sg59
I01
sbg9
(g19
g11
NtRp2686
(dp2687
g14
(lp2688
sg16
I4980529622459556101
sg17
Nsg18
(g9
(g23
g11
NtRp2689
((I0
S'1L'
I0
I1
t(dp2690
g26
I53
sg14
(lp2691
sg16
I-8838321674194594742
sg17
Nsg18
(tsg28
g71
stbg986
g2560
tp2692
sg28
g190
sg59
I01
sbtp2693
sg28
g278
sg59
I01
sbg2566
tp2694
sg28
g190
sg59
I01
sbg9
(g19
g11
NtRp2695
(dp2696
g14
(lp2697
sg16
I6891304737471354842
sg17
Nsg18
(g1190
g404
g167
g222
tp2698
sg28
g190
sg59
I01
sbg9
(g19
g11
NtRp2699
(dp2700
g14
(lp2701
sg16
I7118835016342507136
sg17
Nsg18
(g1229
g252
g379
tp2702
sg28
g190
sg59
I01
sbg9
(g19
g11
NtRp2703
(dp2704
g14
(lp2705
sg16
I8301762339165968888
sg17
Nsg18
(g9
(g23
g11
NtRp2706
((I1
S'69L'
I0
I7
t(dp2707
g26
I53
sg14
(lp2708
sg16
I60220716336317631
sg17
Nsg18
(tsg28
g71
stbg1200
g2560
tp2709
sg28
g190
sg59
I01
sbtp2710
sg28
g278
sg59
I01
sbag9
(g10
g11
NtRp2711
(dp2712
g14
(lp2713
sg16
I-2577218347315748605
sg17
Nsg18
(g9
(g19
g11
NtRp2714
(dp2715
g14
(lp2716
sg16
I-9132992773516874315
sg17
Nsg18
(g9
(g23
g11
NtRp2717
((I0
S'fL'
I0
I4
t(dp2718
g26
I53
sg14
(lp2719
sg16
I-2502376452925460751
sg17
Nsg18
(tsg28
g71
stbg1282
g2617
tp2720
sg28
g190
sg59
I01
sbg9
(g19
g11
NtRp2721
(dp2722
g14
(lp2723
sg16
I-7749752983933487154
sg17
Nsg18
(g9
(g23
g11
NtRp2724
((I0
S'25L'
I2
I6
t(dp2725
g26
I53
sg14
(lp2726
sg16
I7839484899910388231
sg17
Nsg18
(tsg28
g71
stbg579
g167
tp2727
sg28
g190
sg59
I01
sbg9
(g19
g11
NtRp2728
(dp2729
g14
(lp2730
sg16
I-6160697142902213218
sg17
Nsg18
(g9
(g23
g11
NtRp2731
((I0
S'69L'
I0
I7
t(dp2732
g26
I53
sg14
(lp2733
sg16
I2601078411346328320
sg17
Nsg18
(tsg28
g71
stbg1397
g2526
tp2734
sg28
g190
sg59
I01
sbg9
(g19
g11
NtRp2735
(dp2736
g14
(lp2737
sg16
I-4130610163163382853
sg17
Nsg18
(g1272
g297
g49
g97
tp2738
sg28
g190
sg59
I01
sbg9
(g19
g11
NtRp2739
(dp2740
g14
(lp2741
sg16
I25317318822484564
sg17
Nsg18
(g9
(g23
g11
NtRp2742
((I0
S'25L'
I2
I6
t(dp2743
g26
I53
sg14
(lp2744
sg16
I7839484899910388231
sg17
Nsg18
(tsg28
g71
stbg468
g222
tp2745
sg28
g190
sg59
I01
sbg9
(g19
g11
NtRp2746
(dp2747
g14
(lp2748
sg16
I485365294006845383
sg17
Nsg18
(g1444
g529
g167
tp2749
sg28
g190
sg59
I01
sbg9
(g19
g11
NtRp2750
(dp2751
g14
(lp2752
sg16
I552476898296133408
sg17
Nsg18
(g1451
g92
g297
tp2753
sg28
g190
sg59
I01
sbg9
(g19
g11
NtRp2754
(dp2755
g14
(lp2756
sg16
I2987222982095188834
sg17
Nsg18
(g9
(g23
g11
NtRp2757
((I1
S'69L'
I0
I7
t(dp2758
g26
I53
sg14
(lp2759
sg16
I60220716336317631
sg17
Nsg18
(tsg28
g71
stbg1470
g2560
tp2760
sg28
g190
sg59
I01
sbg9
(g19
g11
NtRp2761
(dp2762
g14
(lp2763
sg16
I4382549126333796881
sg17
Nsg18
(g9
(g23
g11
NtRp2764
((I0
S'fL'
I0
I4
t(dp2765
g26
I53
sg14
(lp2766
sg16
I-2502376452925460751
sg17
Nsg18
(tsg28
g71
stbg9
(g10
g11
NtRp2767
(dp2768
g14
(lp2769
sg16
I5496795351227079786
sg17
Nsg18
(g9
(g19
g11
NtRp2770
(dp2771
g14
(lp2772
sg16
I-6889327896919246869
sg17
Nsg18
(g9
(g23
g11
NtRp2773
((I0
S'1L'
I0
I1
t(dp2774
g26
I53
sg14
(lp2775
sg16
I-8838321674194594742
sg17
Nsg18
(tsg28
g71
stbg1397
g2560
tp2776
sg28
g190
sg59
I01
sbg9
(g19
g11
NtRp2777
(dp2778
g14
(lp2779
sg16
I-2857322611667857300
sg17
Nsg18
(g9
(g23
g11
NtRp2780
((I0
S'1L'
I0
I1
t(dp2781
g26
I53
sg14
(lp2782
sg16
I-8838321674194594742
sg17
Nsg18
(tsg28
g71
stbg1470
g2526
tp2783
sg28
g190
sg59
I01
sbtp2784
sg28
g278
sg59
I01
sbg2566
tp2785
sg28
g190
sg59
I01
sbg9
(g19
g11
NtRp2786
(dp2787
g14
(lp2788
sg16
I5842537786206894430
sg17
Nsg18
(g1522
g252
g579
tp2789
sg28
g190
sg59
I01
sbg9
(g19
g11
NtRp2790
(dp2791
g14
(lp2792
sg16
I8105391505651946570
sg17
Nsg18
(g1529
g92
g297
g113
tp2793
sg28
g190
sg59
I01
sbg9
(g19
g11
NtRp2794
(dp2795
g14
(lp2796
sg16
I8626184507562385740
sg17
Nsg18
(g1536
g468
g167
g222
tp2797
sg28
g190
sg59
I01
sbtp2798
sg28
g278
sg59
I01
sbag9
(g23
g11
NtRp2799
((I0
S'1L'
I0
I1
t(dp2800
g26
I53
sg14
(lp2801
sg16
Nsg17
Nsg18
(tsg28
g71
stbatbsS'LAnklePitch'
p2802
g3
(g4
(I0
tS'b'
tRp2803
(I1
(I4
I1
tg7
I00
(lp2804
g9
(g10
g11
NtRp2805
(dp2806
g14
(lp2807
sg16
I-4511021818051624367
sg17
Nsg18
(g20
g9
(g19
g11
NtRp2808
(dp2809
g14
(lp2810
sg16
I-7180374312897153124
sg17
Nsg18
(g9
(g23
g11
NtRp2811
((I1
S'cdccccccccccdL'
I-45
I52
t(dp2812
g26
I53
sg14
(lp2813
sg16
I6674920830780898407
sg17
Nsg18
(tsg28
g71
stbg9
(g10
g11
NtRp2814
(dp2815
g14
(lp2816
sg16
I3745076205168811305
sg17
Nsg18
(g9
(g19
g11
NtRp2817
(dp2818
g14
(lp2819
sg16
I-6105429542777169717
sg17
Nsg18
(g9
(g23
g11
NtRp2820
((I0
S'1L'
I0
I1
t(dp2821
g26
I53
sg14
(lp2822
sg16
I-8838321674194594742
sg17
Nsg18
(tsg28
g71
stbg1995
g2072
tp2823
sg28
g190
sg59
I01
sbg9
(g19
g11
NtRp2824
(dp2825
g14
(lp2826
sg16
I5393598780809829813
sg17
Nsg18
(g9
(g23
g11
NtRp2827
((I0
S'1L'
I0
I1
t(dp2828
g26
I53
sg14
(lp2829
sg16
I-8838321674194594742
sg17
Nsg18
(tsg28
g71
stbg1926
g1980
tp2830
sg28
g190
sg59
I01
sbtp2831
sg28
g278
sg59
I01
sbg9
(g91
g11
NtRp2832
(dp2833
g17
Nsg18
(g9
(g51
g11
NtRp2834
(dp2835
g14
(lp2836
sg55
S'LKneePitch'
p2837
sg17
Nsg18
(tsg28
g1951
sg59
I01
sg16
I5412175465016114577
sbtp2838
sg14
(lp2839
sg28
g1956
sg16
I-2388689740720130882
sbtp2840
sg28
g190
sg59
I01
sbg9
(g19
g11
NtRp2841
(dp2842
g14
(lp2843
sg16
I-5602066592115065747
sg17
Nsg18
(g720
g113
g49
tp2844
sg28
g190
sg59
I01
sbg9
(g19
g11
NtRp2845
(dp2846
g14
(lp2847
sg16
I-3927140234421523742
sg17
Nsg18
(g1916
g739
g167
g240
tp2848
sg28
g190
sg59
I01
sbg9
(g19
g11
NtRp2849
(dp2850
g14
(lp2851
sg16
I-1693517748023032228
sg17
Nsg18
(g9
(g23
g11
NtRp2852
((I1
S'19L'
I2
I5
t(dp2853
g26
I53
sg14
(lp2854
sg16
I-2346872259468522873
sg17
Nsg18
(tsg28
g71
stbg1926
g1980
tp2855
sg28
g190
sg59
I01
sbg9
(g19
g11
NtRp2856
(dp2857
g14
(lp2858
sg16
I-1450999946855445062
sg17
Nsg18
(g9
(g23
g11
NtRp2859
((I1
S'19L'
I2
I5
t(dp2860
g26
I53
sg14
(lp2861
sg16
I-2346872259468522873
sg17
Nsg18
(tsg28
g71
stbg1995
g2072
tp2862
sg28
g190
sg59
I01
sbg9
(g19
g11
NtRp2863
(dp2864
g14
(lp2865
sg16
I-134860607654577693
sg17
Nsg18
(g2080
g800
g222
tp2866
sg28
g190
sg59
I01
sbg9
(g19
g11
NtRp2867
(dp2868
g14
(lp2869
sg16
I3960466736704400709
sg17
Nsg18
(g951
g92
g97
tp2870
sg28
g190
sg59
I01
sbg9
(g19
g11
NtRp2871
(dp2872
g14
(lp2873
sg16
I4764992619492095608
sg17
Nsg18
(g9
(g23
g11
NtRp2874
((I1
S'cdccccccccccdL'
I-45
I52
t(dp2875
g26
I53
sg14
(lp2876
sg16
I6674920830780898407
sg17
Nsg18
(tsg28
g71
stbg9
(g10
g11
NtRp2877
(dp2878
g14
(lp2879
sg16
I19084175811637750
sg17
Nsg18
(g9
(g19
g11
NtRp2880
(dp2881
g14
(lp2882
sg16
I-2657344915687955266
sg17
Nsg18
(g9
(g23
g11
NtRp2883
((I0
S'1L'
I0
I1
t(dp2884
g26
I53
sg14
(lp2885
sg16
I-8838321674194594742
sg17
Nsg18
(tsg28
g71
stbg1926
g2072
tp2886
sg28
g190
sg59
I01
sbg9
(g19
g11
NtRp2887
(dp2888
g14
(lp2889
sg16
I2886133144591980179
sg17
Nsg18
(g9
(g23
g11
NtRp2890
((I1
S'1L'
I0
I1
t(dp2891
g26
I53
sg14
(lp2892
sg16
I1652741725224645181
sg17
Nsg18
(tsg28
g71
stbg1995
g1980
tp2893
sg28
g190
sg59
I01
sbtp2894
sg28
g278
sg59
I01
sbg9
(g48
g11
NtRp2895
(dp2896
g17
Nsg18
(g2834
tp2897
sg14
(lp2898
sg28
g1970
sg16
I1094005778642207329
sbtp2899
sg28
g190
sg59
I01
sbtp2900
sg28
g278
sg59
I01
sbag9
(g10
g11
NtRp2901
(dp2902
g14
(lp2903
sg16
I4137852433942868705
sg17
Nsg18
(g9
(g19
g11
NtRp2904
(dp2905
g14
(lp2906
sg16
I-2344065559300548877
sg17
Nsg18
(g9
(g23
g11
NtRp2907
((I1
S'19L'
I2
I5
t(dp2908
g26
I53
sg14
(lp2909
sg16
I-2346872259468522873
sg17
Nsg18
(tsg28
g71
stbg2098
g1980
tp2910
sg28
g190
sg59
I01
sbg9
(g19
g11
NtRp2911
(dp2912
g14
(lp2913
sg16
I-353476224098118901
sg17
Nsg18
(g2127
g1056
g167
tp2914
sg28
g190
sg59
I01
sbg9
(g19
g11
NtRp2915
(dp2916
g14
(lp2917
sg16
I405894300130032289
sg17
Nsg18
(g1130
g92
g113
g330
tp2918
sg28
g190
sg59
I01
sbg9
(g19
g11
NtRp2919
(dp2920
g14
(lp2921
sg16
I563910896583493480
sg17
Nsg18
(g1137
g49
g330
g97
tp2922
sg28
g190
sg59
I01
sbg9
(g19
g11
NtRp2923
(dp2924
g14
(lp2925
sg16
I861534365578085900
sg17
Nsg18
(g9
(g23
g11
NtRp2926
((I1
S'cdccccccccccdL'
I-45
I52
t(dp2927
g26
I53
sg14
(lp2928
sg16
I6674920830780898407
sg17
Nsg18
(tsg28
g71
stbg9
(g10
g11
NtRp2929
(dp2930
g14
(lp2931
sg16
I-3272760152134557479
sg17
Nsg18
(g9
(g19
g11
NtRp2932
(dp2933
g14
(lp2934
sg16
I771769840299539458
sg17
Nsg18
(g9
(g23
g11
NtRp2935
((I0
S'1L'
I0
I1
t(dp2936
g26
I53
sg14
(lp2937
sg16
I-8838321674194594742
sg17
Nsg18
(tsg28
g71
stbg2098
g1980
tp2938
sg28
g190
sg59
I01
sbg9
(g19
g11
NtRp2939
(dp2940
g14
(lp2941
sg16
I6768246721707170442
sg17
Nsg18
(g9
(g23
g11
NtRp2942
((I0
S'1L'
I0
I1
t(dp2943
g26
I53
sg14
(lp2944
sg16
I-8838321674194594742
sg17
Nsg18
(tsg28
g71
stbg2156
g2072
tp2945
sg28
g190
sg59
I01
sbtp2946
sg28
g278
sg59
I01
sbg2832
tp2947
sg28
g190
sg59
I01
sbg9
(g19
g11
NtRp2948
(dp2949
g14
(lp2950
sg16
I3951041701381161183
sg17
Nsg18
(g1169
g92
g330
tp2951
sg28
g190
sg59
I01
sbg9
(g19
g11
NtRp2952
(dp2953
g14
(lp2954
sg16
I3995120225593037497
sg17
Nsg18
(g2146
g995
g222
tp2955
sg28
g190
sg59
I01
sbg9
(g19
g11
NtRp2956
(dp2957
g14
(lp2958
sg16
I6833995330670770075
sg17
Nsg18
(g9
(g23
g11
NtRp2959
((I1
S'19L'
I2
I5
t(dp2960
g26
I53
sg14
(lp2961
sg16
I-2346872259468522873
sg17
Nsg18
(tsg28
g71
stbg2156
g2072
tp2962
sg28
g190
sg59
I01
sbg9
(g19
g11
NtRp2963
(dp2964
g14
(lp2965
sg16
I7651418624273387998
sg17
Nsg18
(g9
(g23
g11
NtRp2966
((I1
S'cdccccccccccdL'
I-45
I52
t(dp2967
g26
I53
sg14
(lp2968
sg16
I6674920830780898407
sg17
Nsg18
(tsg28
g71
stbg9
(g10
g11
NtRp2969
(dp2970
g14
(lp2971
sg16
I4179046126461272896
sg17
Nsg18
(g9
(g19
g11
NtRp2972
(dp2973
g14
(lp2974
sg16
I-5113663456395216174
sg17
Nsg18
(g9
(g23
g11
NtRp2975
((I1
S'1L'
I0
I1
t(dp2976
g26
I53
sg14
(lp2977
sg16
I1652741725224645181
sg17
Nsg18
(tsg28
g71
stbg2156
g1980
tp2978
sg28
g190
sg59
I01
sbg9
(g19
g11
NtRp2979
(dp2980
g14
(lp2981
sg16
I5626674478936687545
sg17
Nsg18
(g9
(g23
g11
NtRp2982
((I0
S'1L'
I0
I1
t(dp2983
g26
I53
sg14
(lp2984
sg16
I-8838321674194594742
sg17
Nsg18
(tsg28
g71
stbg2098
g2072
tp2985
sg28
g190
sg59
I01
sbtp2986
sg28
g278
sg59
I01
sbg2895
tp2987
sg28
g190
sg59
I01
sbtp2988
sg28
g278
sg59
I01
sbag9
(g10
g11
NtRp2989
(dp2990
g14
(lp2991
sg16
I7098072219033270108
sg17
Nsg18
(g9
(g19
g11
NtRp2992
(dp2993
g14
(lp2994
sg16
I-7633701743411601647
sg17
Nsg18
(g9
(g23
g11
NtRp2995
((I1
S'19L'
I2
I5
t(dp2996
g26
I53
sg14
(lp2997
sg16
I-2346872259468522873
sg17
Nsg18
(tsg28
g71
stbg2228
g2072
tp2998
sg28
g190
sg59
I01
sbg9
(g19
g11
NtRp2999
(dp3000
g14
(lp3001
sg16
I-6470825772365540985
sg17
Nsg18
(g9
(g23
g11
NtRp3002
((I1
S'19L'
I2
I5
t(dp3003
g26
I53
sg14
(lp3004
sg16
I-2346872259468522873
sg17
Nsg18
(tsg28
g71
stbg2296
g1980
tp3005
sg28
g190
sg59
I01
sbg9
(g19
g11
NtRp3006
(dp3007
g14
(lp3008
sg16
I-4130610163163382853
sg17
Nsg18
(g1272
g297
g49
g97
tp3009
sg28
g190
sg59
I01
sbg9
(g19
g11
NtRp3010
(dp3011
g14
(lp3012
sg16
I-2848857993659714332
sg17
Nsg18
(g9
(g23
g11
NtRp3013
((I1
S'cdccccccccccdL'
I-45
I52
t(dp3014
g26
I53
sg14
(lp3015
sg16
I6674920830780898407
sg17
Nsg18
(tsg28
g71
stbg9
(g10
g11
NtRp3016
(dp3017
g14
(lp3018
sg16
I3730829327009484978
sg17
Nsg18
(g9
(g19
g11
NtRp3019
(dp3020
g14
(lp3021
sg16
I2440365220532181688
sg17
Nsg18
(g9
(g23
g11
NtRp3022
((I1
S'1L'
I0
I1
t(dp3023
g26
I53
sg14
(lp3024
sg16
I1652741725224645181
sg17
Nsg18
(tsg28
g71
stbg2228
g1980
tp3025
sg28
g190
sg59
I01
sbg9
(g19
g11
NtRp3026
(dp3027
g14
(lp3028
sg16
I4088974445929969557
sg17
Nsg18
(g9
(g23
g11
NtRp3029
((I0
S'1L'
I0
I1
t(dp3030
g26
I53
sg14
(lp3031
sg16
I-8838321674194594742
sg17
Nsg18
(tsg28
g71
stbg2296
g2072
tp3032
sg28
g190
sg59
I01
sbtp3033
sg28
g278
sg59
I01
sbg2895
tp3034
sg28
g190
sg59
I01
sbg9
(g19
g11
NtRp3035
(dp3036
g14
(lp3037
sg16
I-1922993852186390425
sg17
Nsg18
(g2329
g1291
g222
tp3038
sg28
g190
sg59
I01
sbg9
(g19
g11
NtRp3039
(dp3040
g14
(lp3041
sg16
I-508443358997831115
sg17
Nsg18
(g2336
g1352
g167
tp3042
sg28
g190
sg59
I01
sbg9
(g19
g11
NtRp3043
(dp3044
g14
(lp3045
sg16
I552476898296133408
sg17
Nsg18
(g1451
g92
g297
tp3046
sg28
g190
sg59
I01
sbg9
(g19
g11
NtRp3047
(dp3048
g14
(lp3049
sg16
I3228973032926961494
sg17
Nsg18
(g9
(g23
g11
NtRp3050
((I1
S'cdccccccccccdL'
I-45
I52
t(dp3051
g26
I53
sg14
(lp3052
sg16
I6674920830780898407
sg17
Nsg18
(tsg28
g71
stbg9
(g10
g11
NtRp3053
(dp3054
g14
(lp3055
sg16
I-2259734237504090469
sg17
Nsg18
(g9
(g19
g11
NtRp3056
(dp3057
g14
(lp3058
sg16
I-1171466254274598178
sg17
Nsg18
(g9
(g23
g11
NtRp3059
((I0
S'1L'
I0
I1
t(dp3060
g26
I53
sg14
(lp3061
sg16
I-8838321674194594742
sg17
Nsg18
(tsg28
g71
stbg2296
g1980
tp3062
sg28
g190
sg59
I01
sbg9
(g19
g11
NtRp3063
(dp3064
g14
(lp3065
sg16
I6102005697215556864
sg17
Nsg18
(g9
(g23
g11
NtRp3066
((I0
S'1L'
I0
I1
t(dp3067
g26
I53
sg14
(lp3068
sg16
I-8838321674194594742
sg17
Nsg18
(tsg28
g71
stbg2228
g2072
tp3069
sg28
g190
sg59
I01
sbtp3070
sg28
g278
sg59
I01
sbg2832
tp3071
sg28
g190
sg59
I01
sbg9
(g19
g11
NtRp3072
(dp3073
g14
(lp3074
sg16
I8105391505651946570
sg17
Nsg18
(g1529
g92
g297
g113
tp3075
sg28
g190
sg59
I01
sbtp3076
sg28
g278
sg59
I01
sbag9
(g23
g11
NtRp3077
((I0
S'1L'
I0
I1
t(dp3078
g26
I53
sg14
(lp3079
sg16
Nsg17
Nsg18
(tsg28
g71
stbatbsS'RHipYawPitch'
p3080
g3
(g4
(I0
tS'b'
tRp3081
(I1
(I4
I1
tg7
I00
(lp3082
g633
ag651
ag676
ag9
(g23
g11
NtRp3083
((I0
S'1L'
I0
I1
t(dp3084
g26
I53
sg14
(lp3085
sg16
Nsg17
Nsg18
(tsg28
g71
stbatbsS'HeadPitch'
p3086
g3
(g4
(I0
tS'b'
tRp3087
(I1
(I4
I1
tg7
I00
(lp3088
g12
ag279
ag459
ag9
(g23
g11
NtRp3089
((I0
S'1L'
I0
I1
t(dp3090
g26
I53
sg14
(lp3091
sg16
Nsg17
Nsg18
(tsg28
g71
stbatbsS'Torso'
p3092
g3
(g4
(I0
tS'b'
tRp3093
(I1
(I4
I1
tg7
I00
(lp3094
g9
(g10
g11
NtRp3095
(dp3096
g14
(lp3097
sg16
I6588764027704470070
sg17
Nsg18
(g20
g9
(g19
g11
NtRp3098
(dp3099
g14
(lp3100
sg16
I-5602066592115065747
sg17
Nsg18
(g720
g113
g49
tp3101
sg28
g190
sg59
I01
sbg9
(g19
g11
NtRp3102
(dp3103
g14
(lp3104
sg16
I-4430157474774433592
sg17
Nsg18
(g9
(g23
g11
NtRp3105
((I0
S'19L'
I1
I5
t(dp3106
g26
I53
sg14
(lp3107
sg16
I2580433242203447463
sg17
Nsg18
(tsg28
g71
stbg800
g222
tp3108
sg28
g190
sg59
I01
sbg9
(g19
g11
NtRp3109
(dp3110
g14
(lp3111
sg16
I-2668356383902362293
sg17
Nsg18
(g9
(g23
g11
NtRp3112
((I1
S'19L'
I1
I5
t(dp3113
g26
I53
sg14
(lp3114
sg16
I-5014737459536341256
sg17
Nsg18
(tsg28
g71
stbg739
g167
g240
tp3115
sg28
g190
sg59
I01
sbg9
(g19
g11
NtRp3116
(dp3117
g14
(lp3118
sg16
I-1501205978531289056
sg17
Nsg18
(g9
(g23
g11
NtRp3119
((I0
S'55L'
I0
I7
t(dp3120
g26
I53
sg14
(lp3121
sg16
I3750183570293013148
sg17
Nsg18
(tsg28
g71
stbg739
g159
g167
tp3122
sg28
g190
sg59
I01
sbg9
(g19
g11
NtRp3123
(dp3124
g14
(lp3125
sg16
I-7727367050440846
sg17
Nsg18
(g9
(g23
g11
NtRp3126
((I1
S'55L'
I0
I7
t(dp3127
g26
I53
sg14
(lp3128
sg16
I7878763082092801979
sg17
Nsg18
(tsg28
g71
stbg252
g739
g240
tp3129
sg28
g190
sg59
I01
sbg9
(g19
g11
NtRp3130
(dp3131
g14
(lp3132
sg16
I317586805860237117
sg17
Nsg18
(g9
(g23
g11
NtRp3133
((I1
S'55L'
I0
I7
t(dp3134
g26
I53
sg14
(lp3135
sg16
I7878763082092801979
sg17
Nsg18
(tsg28
g71
stbg800
g167
g222
tp3136
sg28
g190
sg59
I01
sbg9
(g19
g11
NtRp3137
(dp3138
g14
(lp3139
sg16
I3960466736704400709
sg17
Nsg18
(g951
g92
g97
tp3140
sg28
g190
sg59
I01
sbtp3141
sg28
g278
sg59
I01
sbag9
(g10
g11
NtRp3142
(dp3143
g14
(lp3144
sg16
I5640358755589815701
sg17
Nsg18
(g9
(g19
g11
NtRp3145
(dp3146
g14
(lp3147
sg16
I-6757756144853696936
sg17
Nsg18
(g9
(g23
g11
NtRp3148
((I0
S'19L'
I1
I5
t(dp3149
g26
I53
sg14
(lp3150
sg16
I2580433242203447463
sg17
Nsg18
(tsg28
g71
stbg1056
g167
tp3151
sg28
g190
sg59
I01
sbg9
(g19
g11
NtRp3152
(dp3153
g14
(lp3154
sg16
I405894300130032289
sg17
Nsg18
(g1130
g92
g113
g330
tp3155
sg28
g190
sg59
I01
sbg9
(g19
g11
NtRp3156
(dp3157
g14
(lp3158
sg16
I563910896583493480
sg17
Nsg18
(g1137
g49
g330
g97
tp3159
sg28
g190
sg59
I01
sbg9
(g19
g11
NtRp3160
(dp3161
g14
(lp3162
sg16
I984754342908034098
sg17
Nsg18
(g9
(g23
g11
NtRp3163
((I0
S'19L'
I1
I5
t(dp3164
g26
I53
sg14
(lp3165
sg16
I2580433242203447463
sg17
Nsg18
(tsg28
g71
stbg995
g222
tp3166
sg28
g190
sg59
I01
sbg9
(g19
g11
NtRp3167
(dp3168
g14
(lp3169
sg16
I1797527498301370279
sg17
Nsg18
(g9
(g23
g11
NtRp3170
((I1
S'55L'
I0
I7
t(dp3171
g26
I53
sg14
(lp3172
sg16
I7878763082092801979
sg17
Nsg18
(tsg28
g71
stbg995
g167
g222
tp3173
sg28
g190
sg59
I01
sbg9
(g19
g11
NtRp3174
(dp3175
g14
(lp3176
sg16
I3032562110811376903
sg17
Nsg18
(g9
(g23
g11
NtRp3177
((I0
S'55L'
I0
I7
t(dp3178
g26
I53
sg14
(lp3179
sg16
I3750183570293013148
sg17
Nsg18
(tsg28
g71
stbg252
g1056
tp3180
sg28
g190
sg59
I01
sbg9
(g19
g11
NtRp3181
(dp3182
g14
(lp3183
sg16
I3951041701381161183
sg17
Nsg18
(g1169
g92
g330
tp3184
sg28
g190
sg59
I01
sbg9
(g19
g11
NtRp3185
(dp3186
g14
(lp3187
sg16
I5262287538286667990
sg17
Nsg18
(g9
(g23
g11
NtRp3188
((I0
S'55L'
I0
I7
t(dp3189
g26
I53
sg14
(lp3190
sg16
I3750183570293013148
sg17
Nsg18
(tsg28
g71
stbg1099
g167
tp3191
sg28
g190
sg59
I01
sbtp3192
sg28
g278
sg59
I01
sbag9
(g10
g11
NtRp3193
(dp3194
g14
(lp3195
sg16
I8637940986406288730
sg17
Nsg18
(g9
(g19
g11
NtRp3196
(dp3197
g14
(lp3198
sg16
I-4130610163163382853
sg17
Nsg18
(g1272
g297
g49
g97
tp3199
sg28
g190
sg59
I01
sbg9
(g19
g11
NtRp3200
(dp3201
g14
(lp3202
sg16
I-3500638159329297106
sg17
Nsg18
(g9
(g23
g11
NtRp3203
((I0
S'19L'
I1
I5
t(dp3204
g26
I53
sg14
(lp3205
sg16
I2580433242203447463
sg17
Nsg18
(tsg28
g71
stbg1352
g167
tp3206
sg28
g190
sg59
I01
sbg9
(g19
g11
NtRp3207
(dp3208
g14
(lp3209
sg16
I-464576517786412044
sg17
Nsg18
(g9
(g23
g11
NtRp3210
((I0
S'19L'
I1
I5
t(dp3211
g26
I53
sg14
(lp3212
sg16
I2580433242203447463
sg17
Nsg18
(tsg28
g71
stbg1291
g222
tp3213
sg28
g190
sg59
I01
sbg9
(g19
g11
NtRp3214
(dp3215
g14
(lp3216
sg16
I552476898296133408
sg17
Nsg18
(g1451
g92
g297
tp3217
sg28
g190
sg59
I01
sbg9
(g19
g11
NtRp3218
(dp3219
g14
(lp3220
sg16
I1206457535380154745
sg17
Nsg18
(g9
(g23
g11
NtRp3221
((I1
S'55L'
I0
I7
t(dp3222
g26
I53
sg14
(lp3223
sg16
I7878763082092801979
sg17
Nsg18
(tsg28
g71
stbg1291
g167
g222
tp3224
sg28
g190
sg59
I01
sbg9
(g19
g11
NtRp3225
(dp3226
g14
(lp3227
sg16
I1336949306960156713
sg17
Nsg18
(g9
(g23
g11
NtRp3228
((I0
S'55L'
I0
I7
t(dp3229
g26
I53
sg14
(lp3230
sg16
I3750183570293013148
sg17
Nsg18
(tsg28
g71
stbg252
g1352
tp3231
sg28
g190
sg59
I01
sbg9
(g19
g11
NtRp3232
(dp3233
g14
(lp3234
sg16
I6935988309679448384
sg17
Nsg18
(g9
(g23
g11
NtRp3235
((I0
S'55L'
I0
I7
t(dp3236
g26
I53
sg14
(lp3237
sg16
I3750183570293013148
sg17
Nsg18
(tsg28
g71
stbg1413
g167
tp3238
sg28
g190
sg59
I01
sbg9
(g19
g11
NtRp3239
(dp3240
g14
(lp3241
sg16
I8105391505651946570
sg17
Nsg18
(g1529
g92
g297
g113
tp3242
sg28
g190
sg59
I01
sbtp3243
sg28
g278
sg59
I01
sbag9
(g23
g11
NtRp3244
((I0
S'1L'
I0
I1
t(dp3245
g26
I53
sg14
(lp3246
sg16
Nsg17
Nsg18
(tsg28
g71
stbatbsS'LElbowRoll'
p3247
g3
(g4
(I0
tS'b'
tRp3248
(I1
(I4
I1
tg7
I00
(lp3249
g2517
ag2623
ag2711
ag9
(g23
g11
NtRp3250
((I0
S'1L'
I0
I1
t(dp3251
g26
I53
sg14
(lp3252
sg16
Nsg17
Nsg18
(tsg28
g71
stbatbsg825
g3
(g4
(I0
tS'b'
tRp3253
(I1
(I4
I1
tg7
I00
(lp3254
g1546
ag1600
ag1660
ag9
(g23
g11
NtRp3255
((I0
S'1L'
I0
I1
t(dp3256
g26
I53
sg14
(lp3257
sg16
Nsg17
Nsg18
(tsg28
g71
stbatbsS'LAnkleRoll'
p3258
g3
(g4
(I0
tS'b'
tRp3259
(I1
(I4
I1
tg7
I00
(lp3260
g2805
ag2901
ag2989
ag9
(g23
g11
NtRp3261
((I0
S'1L'
I0
I1
t(dp3262
g26
I53
sg14
(lp3263
sg16
Nsg17
Nsg18
(tsg28
g71
stbatbsS'LHipYawPitch'
p3264
g3
(g4
(I0
tS'b'
tRp3265
(I1
(I4
I1
tg7
I00
(lp3266
g2400
ag2433
ag2472
ag9
(g23
g11
NtRp3267
((I0
S'1L'
I0
I1
t(dp3268
g26
I53
sg14
(lp3269
sg16
Nsg17
Nsg18
(tsg28
g71
stbatbsS'RAnklePitch'
p3270
g3
(g4
(I0
tS'b'
tRp3271
(I1
(I4
I1
tg7
I00
(lp3272
g2356
ag2356
ag2356
ag9
(g23
g11
NtRp3273
((I0
S'1L'
I0
I1
t(dp3274
g26
I53
sg14
(lp3275
sg16
Nsg17
Nsg18
(tsg28
g71
stbatbsS'LHipRoll'
p3276
g3
(g4
(I0
tS'b'
tRp3277
(I1
(I4
I1
tg7
I00
(lp3278
g2400
ag2433
ag2472
ag9
(g23
g11
NtRp3279
((I0
S'1L'
I0
I1
t(dp3280
g26
I53
sg14
(lp3281
sg16
Nsg17
Nsg18
(tsg28
g71
stbatbsS'RHipRoll'
p3282
g3
(g4
(I0
tS'b'
tRp3283
(I1
(I4
I1
tg7
I00
(lp3284
g633
ag651
ag676
ag9
(g23
g11
NtRp3285
((I0
S'1L'
I0
I1
t(dp3286
g26
I53
sg14
(lp3287
sg16
Nsg17
Nsg18
(tsg28
g71
stbatbsS'RElbowRoll'
p3288
g3
(g4
(I0
tS'b'
tRp3289
(I1
(I4
I1
tg7
I00
(lp3290
g707
ag977
ag1259
ag9
(g23
g11
NtRp3291
((I0
S'1L'
I0
I1
t(dp3292
g26
I53
sg14
(lp3293
sg16
Nsg17
Nsg18
(tsg28
g71
stbatbsS'RKneePitch'
p3294
g3
(g4
(I0
tS'b'
tRp3295
(I1
(I4
I1
tg7
I00
(lp3296
g20
ag9
(g19
g11
NtRp3297
(dp3298
g14
(lp3299
sg16
I3951041701381161183
sg17
Nsg18
(g9
(g23
g11
NtRp3300
((I0
S'cdccccccccccdL'
I-45
I52
t(dp3301
g26
I53
sg14
(lp3302
sg16
I-2031544583562847888
sg17
Nsg18
(tsg28
g71
stbg92
g330
tp3303
sg28
g190
sg59
I01
sbag9
(g19
g11
NtRp3304
(dp3305
g14
(lp3306
sg16
I552476898296133408
sg17
Nsg18
(g9
(g23
g11
NtRp3307
((I0
S'cdccccccccccdL'
I-45
I52
t(dp3308
g26
I53
sg14
(lp3309
sg16
I-2031544583562847888
sg17
Nsg18
(tsg28
g71
stbg92
g297
tp3310
sg28
g190
sg59
I01
sbag9
(g23
g11
NtRp3311
((I0
S'1L'
I0
I1
t(dp3312
g26
I53
sg14
(lp3313
sg16
Nsg17
Nsg18
(tsg28
g71
stbatbs.