(dp1
S'HeadYaw'
p2
ccopy_reg
_reconstructor
p3
(csympy.matrices.matrices
Matrix
p4
c__builtin__
object
p5
NtRp6
(dp7
S'rows'
p8
I4
sS'cols'
p9
I1
sS'mat'
p10
(lp11
g3
(csympy.core.add
Add
p12
g5
NtRp13
(dp14
S'_a_inprogress'
p15
(lp16
sS'_mhash'
p17
I-1643969012
sS'_assume_type_keys'
p18
NsS'_args'
p19
(g3
(csympy.core.mul
Mul
p20
g5
NtRp21
(dp22
g15
(lp23
sg17
I-1863975827
sg18
Nsg19
(g3
(csympy.core.numbers
Float
p24
g5
NtRp25
((I1
S'19L'
I2
I5
t(dp26
S'_prec'
p27
I53
sg15
(lp28
sg17
I1093208711
sg18
Nsg19
(tsS'_assumptions'
p29
(dp30
S'real'
p31
I01
sS'nonzero'
p32
I01
sS'comparable'
p33
I01
sS'noninteger'
p34
I01
sS'commutative'
p35
I01
sS'infinitesimal'
p36
I00
sS'composite'
p37
I00
sS'unbounded'
p38
I00
sS'even'
p39
I00
sS'prime'
p40
I00
sS'zero'
p41
I00
sS'complex'
p42
I01
sS'bounded'
p43
I01
sS'integer'
p44
I00
sS'imaginary'
p45
I00
sS'finite'
p46
I01
sS'odd'
p47
I00
sS'irrational'
p48
I00
sstbg3
(csympy.functions.elementary.trigonometric
cos
p49
g5
NtRp50
(dp51
g18
Nsg19
(g3
(csympy.core.symbol
Symbol
p52
g5
NtRp53
(dp54
g15
(lp55
sS'name'
p56
S'RKneePitch'
p57
sg18
Nsg19
(tsg29
(dp58
S'comparable'
p59
I00
ssS'is_commutative'
p60
I01
sg17
I-722345205
sbtp61
sg15
(lp62
sg29
(dp63
sg17
I-228366260
sbg3
(csympy.functions.elementary.trigonometric
sin
p64
g5
NtRp65
(dp66
g18
Nsg19
(g3
(g52
g5
NtRp67
(dp68
g15
(lp69
sg56
S'RAnklePitch'
p70
sg18
Nsg19
(tsg29
g58
sg60
I01
sg17
I1723466328
sbtp71
sg15
(lp72
sg29
(dp73
sg17
I-242350890
sbtp74
sg29
(dp75
sg60
I01
sbg3
(g20
g5
NtRp76
(dp77
g15
(lp78
sg17
I-1097014072
sg18
Nsg19
(g3
(g24
g5
NtRp79
((I1
S'1a7L'
I-1
I9
t(dp80
g27
I53
sg15
(lp81
sg17
I1984254749
sg18
Nsg19
(tsg29
g30
stbg3
(csympy.core.power
Pow
p82
g5
NtRp83
(dp84
g15
(lp85
sg18
Nsg19
(g3
(g64
g5
NtRp86
(dp87
g18
Nsg19
(g3
(g20
g5
NtRp88
(dp89
g15
(lp90
sg17
I-16217212
sg18
Nsg19
(g3
(g24
g5
NtRp91
((I0
S'1L'
I-1
I1
t(dp92
g27
I53
sg15
(lp93
sg17
I1916041984
sg18
Nsg19
(tsg29
(dp94
S'nonpositive'
p95
I00
sg38
I00
sg41
I00
sg47
I00
sg39
I00
sg35
I01
sS'positive'
p96
I01
sg34
I01
sS'negative'
p97
I00
sg42
I01
sg46
I01
sg31
I01
sg32
I01
sg33
I01
sg48
I00
sg37
I00
sg43
I01
sg44
I00
sg45
I00
sg40
I00
sS'nonnegative'
p98
I01
sg36
I00
sstbg3
(g52
g5
NtRp99
(dp100
g15
(lp101
sg56
S'RHipYawPitch'
p102
sg18
Nsg19
(tsg29
g58
sg60
I01
sg17
I1885683180
sbtp103
sg29
(dp104
S'comparable'
p105
I00
ssg60
I01
sbtp106
sg15
(lp107
sg29
g73
sg17
I-493056838
sbg3
(csympy.core.numbers
Integer
p108
g5
NtRp109
(dp110
S'q'
I1
sS'p'
I2
sg15
(lp111
sg17
I-1761484631
sg18
Nsg19
(tsg29
(dp112
S'real'
p113
I01
sS'nonzero'
p114
I01
sg33
I01
sg35
I01
sg95
I00
sg38
I00
sS'noninteger'
p115
I00
sg97
I00
sg98
I01
sS'zero'
p116
I00
sg36
I00
sg43
I01
sS'rational'
p117
I01
sg96
I01
sS'integer'
p118
I01
sg45
I00
sg46
I01
sg42
I01
sS'irrational'
p119
I00
ssbtp120
sg29
(dp121
sg60
I01
sg17
I1081548553
sbg3
(g12
g5
NtRp122
(dp123
g15
(lp124
sg17
I-1073572486
sg18
Nsg19
(g3
(g20
g5
NtRp125
(dp126
g15
(lp127
sg17
I1514375625
sg18
Nsg19
(g3
(csympy.core.numbers
NegativeOne
p128
g5
NtRp129
(dp130
S'q'
I1
sS'p'
I-1
sg15
(lp131
sg17
I-1381217638
sg18
Nsg19
(tsg29
(dp132
S'nonpositive'
p133
I01
sg38
I00
sg116
I00
sg47
I01
sg114
I01
sg35
I01
sg96
I00
sg115
I00
sS'negative'
p134
I01
sg42
I01
sg117
I01
sg46
I01
sg113
I01
sS'even'
p135
I00
sg33
I01
sg119
I00
sg37
I00
sg43
I01
sg118
I01
sg45
I00
sg40
I00
sS'nonnegative'
p136
I00
sg36
I00
ssbg3
(g12
g5
NtRp137
(dp138
g15
(lp139
sg17
I-1198244779
sg18
Nsg19
(g3
(g20
g5
NtRp140
(dp141
g15
(lp142
sg17
I-322397803
sg18
Nsg19
(g3
(g49
g5
NtRp143
(dp144
g18
Nsg19
(g67
tp145
sg15
(lp146
sg29
g63
sg17
I159339129
sbg50
tp147
sg29
(dp148
sg60
I01
sbg3
(g20
g5
NtRp149
(dp150
g15
(lp151
sg17
I997993759
sg18
Nsg19
(g129
g65
g3
(g64
g5
NtRp152
(dp153
g18
Nsg19
(g53
tp154
sg15
(lp155
sg29
g73
sg17
I355959535
sbtp156
sg29
(dp157
sg60
I01
sbtp158
sg29
(dp159
sg60
I01
sbg3
(g64
g5
NtRp160
(dp161
g18
Nsg19
(g3
(g52
g5
NtRp162
(dp163
g15
(lp164
sg56
S'RHipPitch'
p165
sg18
Nsg19
(tsg29
g58
sg60
I01
sg17
I-1128666480
sbtp166
sg15
(lp167
sg29
g73
sg17
I-438195202
sbtp168
sg29
g157
sg60
I01
sbg3
(g20
g5
NtRp169
(dp170
g15
(lp171
sg17
I1862013918
sg18
Nsg19
(g3
(g12
g5
NtRp172
(dp173
g15
(lp174
sg17
I-648976955
sg18
Nsg19
(g3
(g20
g5
NtRp175
(dp176
g15
(lp177
sg17
I749014292
sg18
Nsg19
(g129
g143
g152
tp178
sg29
g148
sg60
I01
sbg3
(g20
g5
NtRp179
(dp180
g15
(lp181
sg17
I1016821004
sg18
Nsg19
(g129
g50
g65
tp182
sg29
g148
sg60
I01
sbtp183
sg29
(dp184
sg60
I01
sbg3
(g49
g5
NtRp185
(dp186
g18
Nsg19
(g162
tp187
sg15
(lp188
sg29
g63
sg17
I67826977
sbtp189
sg29
g148
sg60
I01
sbtp190
sg29
g159
sg60
I01
sbg3
(g64
g5
NtRp191
(dp192
g18
Nsg19
(g3
(g52
g5
NtRp193
(dp194
g15
(lp195
sg56
S'RHipRoll'
p196
sg18
Nsg19
(tsg29
g58
sg60
I01
sg17
I-1872593744
sbtp197
sg15
(lp198
sg29
g73
sg17
I1011105182
sbtp199
sg29
g75
sg60
I01
sbg3
(g20
g5
NtRp200
(dp201
g15
(lp202
sg17
I-920193528
sg18
Nsg19
(g3
(g24
g5
NtRp203
((I1
S'1a7L'
I-1
I9
t(dp204
g27
I53
sg15
(lp205
sg17
I1984254749
sg18
Nsg19
(tsg29
g30
stbg3
(g12
g5
NtRp206
(dp207
g15
(lp208
sg17
I256697650
sg18
Nsg19
(g3
(g20
g5
NtRp209
(dp210
g15
(lp211
sg17
I337422542
sg18
Nsg19
(g137
g185
tp212
sg29
g148
sg60
I01
sbg3
(g20
g5
NtRp213
(dp214
g15
(lp215
sg17
I1067751231
sg18
Nsg19
(g172
g160
tp216
sg29
g148
sg60
I01
sbtp217
sg29
(dp218
sg60
I01
sbg3
(g49
g5
NtRp219
(dp220
g18
Nsg19
(g88
tp221
sg15
(lp222
sg29
g63
sg17
I1633588701
sbg86
tp223
sg29
g75
sg60
I01
sbg3
(g20
g5
NtRp224
(dp225
g15
(lp226
sg17
I-856329701
sg18
Nsg19
(g3
(g24
g5
NtRp227
((I1
S'19L'
I1
I5
t(dp228
g27
I53
sg15
(lp229
sg17
I-1971464456
sg18
Nsg19
(tsg29
g30
stbg3
(g12
g5
NtRp230
(dp231
g15
(lp232
sg17
I-1073572486
sg18
Nsg19
(g3
(g20
g5
NtRp233
(dp234
g15
(lp235
sg17
I1514375625
sg18
Nsg19
(g129
g3
(g12
g5
NtRp236
(dp237
g15
(lp238
sg17
I-1198244779
sg18
Nsg19
(g140
g3
(g20
g5
NtRp239
(dp240
g15
(lp241
sg17
I997993759
sg18
Nsg19
g156
sg29
g75
sg60
I01
sbtp242
sg29
(dp243
sg60
I01
sbg160
tp244
sg29
g75
sg60
I01
sbg169
tp245
sg29
g243
sg60
I01
sbg219
g191
tp246
sg29
g75
sg60
I01
sbg3
(g20
g5
NtRp247
(dp248
g15
(lp249
sg17
I1129617142
sg18
Nsg19
(g3
(g24
g5
NtRp250
((I0
S'1a7L'
I-1
I9
t(dp251
g27
I53
sg15
(lp252
sg17
I17136106
sg18
Nsg19
(tsg29
g30
stbg122
g3
(g49
g5
NtRp253
(dp254
g18
Nsg19
(g193
tp255
sg15
(lp256
sg29
g63
sg17
I1451878081
sbg219
tp257
sg29
g75
sg60
I01
sbg3
(g20
g5
NtRp258
(dp259
g15
(lp260
sg17
I1267225649
sg18
Nsg19
(g3
(g24
g5
NtRp261
((I1
S'cdccccccccccdL'
I-45
I52
t(dp262
g27
I53
sg15
(lp263
sg17
I-1251486285
sg18
Nsg19
(tsg29
(dp264
g31
I01
sg32
I01
sg33
I01
sg35
I01
sg36
I00
sg37
I00
sg38
I00
sg34
I01
sg39
I00
sg40
I00
sg41
I00
sg42
I01
sg43
I01
sg44
I00
sg45
I00
sg46
I01
sg47
I00
sg48
I00
sstbg65
tp265
sg29
g148
sg60
I01
sbg3
(g20
g5
NtRp266
(dp267
g15
(lp268
sg17
I1380793015
sg18
Nsg19
(g3
(g24
g5
NtRp269
((I0
S'19L'
I1
I5
t(dp270
g27
I53
sg15
(lp271
sg17
I-1339727705
sg18
Nsg19
(tsg29
g30
stbg3
(g12
g5
NtRp272
(dp273
g15
(lp274
sg17
I256697650
sg18
Nsg19
g217
sg29
g243
sg60
I01
sbg86
tp275
sg29
g75
sg60
I01
sbg3
(g20
g5
NtRp276
(dp277
g15
(lp278
sg17
I2047094085
sg18
Nsg19
(g3
(g24
g5
NtRp279
((I1
S'19L'
I2
I5
t(dp280
g27
I53
sg15
(lp281
sg17
I1093208711
sg18
Nsg19
(tsg29
g30
stbg143
g152
tp282
sg29
g75
sg60
I01
sbtp283
sg29
g243
sg60
I01
sbag3
(g12
g5
NtRp284
(dp285
g15
(lp286
sg17
I-427290169
sg18
Nsg19
(g3
(g20
g5
NtRp287
(dp288
g15
(lp289
sg17
I-1787684853
sg18
Nsg19
(g3
(g24
g5
NtRp290
((I0
S'cdccccccccccdL'
I-45
I52
t(dp291
g27
I53
sg15
(lp292
sg17
I-1358357444
sg18
Nsg19
(tsg29
g30
stbg143
g3
(g64
g5
NtRp293
(dp294
g18
Nsg19
(g3
(g52
g5
NtRp295
(dp296
g15
(lp297
sg56
S'RAnkleRoll'
p298
sg18
Nsg19
(tsg29
g58
sg60
I01
sg17
I-194954896
sbtp299
sg15
(lp300
sg29
g73
sg17
I1759386718
sbtp301
sg29
g75
sg60
I01
sbg3
(g20
g5
NtRp302
(dp303
g15
(lp304
sg17
I-1768336297
sg18
Nsg19
(g3
(g24
g5
NtRp305
((I0
S'19L'
I1
I5
t(dp306
g27
I53
sg15
(lp307
sg17
I-1339727705
sg18
Nsg19
(tsg29
g30
stbg3
(g12
g5
NtRp308
(dp309
g15
(lp310
sg17
I1891764169
sg18
Nsg19
(g3
(g20
g5
NtRp311
(dp312
g15
(lp313
sg17
I-2023197278
sg18
Nsg19
(g3
(g49
g5
NtRp314
(dp315
g18
Nsg19
(g295
tp316
sg15
(lp317
sg29
g63
sg17
I-804365823
sbg253
tp318
sg29
g148
sg60
I01
sbg3
(g20
g5
NtRp319
(dp320
g15
(lp321
sg17
I1402387674
sg18
Nsg19
(g129
g3
(g12
g5
NtRp322
(dp323
g15
(lp324
sg17
I903767530
sg18
Nsg19
(g3
(g20
g5
NtRp325
(dp326
g15
(lp327
sg17
I111818948
sg18
Nsg19
(g3
(g12
g5
NtRp328
(dp329
g15
(lp330
sg17
I1806960499
sg18
Nsg19
(g3
(g20
g5
NtRp331
(dp332
g15
(lp333
sg17
I-15924029
sg18
Nsg19
(g129
g65
g293
g152
tp334
sg29
g148
sg60
I01
sbg3
(g20
g5
NtRp335
(dp336
g15
(lp337
sg17
I1828112283
sg18
Nsg19
(g143
g50
g293
tp338
sg29
g148
sg60
I01
sbtp339
sg29
g184
sg60
I01
sbg185
tp340
sg29
g148
sg60
I01
sbg3
(g20
g5
NtRp341
(dp342
g15
(lp343
sg17
I657551585
sg18
Nsg19
(g129
g3
(g12
g5
NtRp344
(dp345
g15
(lp346
sg17
I531934877
sg18
Nsg19
(g3
(g20
g5
NtRp347
(dp348
g15
(lp349
sg17
I1430459048
sg18
Nsg19
(g143
g293
g152
tp350
sg29
g75
sg60
I01
sbg3
(g20
g5
NtRp351
(dp352
g15
(lp353
sg17
I2145443992
sg18
Nsg19
(g50
g65
g293
tp354
sg29
g75
sg60
I01
sbtp355
sg29
g243
sg60
I01
sbg160
tp356
sg29
g75
sg60
I01
sbtp357
sg29
g243
sg60
I01
sbg191
tp358
sg29
g75
sg60
I01
sbtp359
sg29
g243
sg60
I01
sbg219
tp360
sg29
g75
sg60
I01
sbg3
(g20
g5
NtRp361
(dp362
g15
(lp363
sg17
I47609130
sg18
Nsg19
(g3
(g24
g5
NtRp364
((I0
S'1a7L'
I-1
I9
t(dp365
g27
I53
sg15
(lp366
sg17
I17136106
sg18
Nsg19
(tsg29
g30
stbg83
g3
(g12
g5
NtRp367
(dp368
g15
(lp369
sg17
I1891764169
sg18
Nsg19
(g311
g3
(g20
g5
NtRp370
(dp371
g15
(lp372
sg17
I1402387674
sg18
Nsg19
(g129
g3
(g12
g5
NtRp373
(dp374
g15
(lp375
sg17
I903767530
sg18
Nsg19
(g325
g3
(g20
g5
NtRp376
(dp377
g15
(lp378
sg17
I657551585
sg18
Nsg19
(g129
g3
(g12
g5
NtRp379
(dp380
g15
(lp381
sg17
I531934877
sg18
Nsg19
(g3
(g20
g5
NtRp382
(dp383
g15
(lp384
sg17
I1430459048
sg18
Nsg19
g350
sg29
(dp385
sg60
I01
sbg3
(g20
g5
NtRp386
(dp387
g15
(lp388
sg17
I2145443992
sg18
Nsg19
g354
sg29
g385
sg60
I01
sbtp389
sg29
g218
sg60
I01
sbg160
tp390
sg29
g385
sg60
I01
sbtp391
sg29
g218
sg60
I01
sbg191
tp392
sg29
g385
sg60
I01
sbtp393
sg29
g218
sg60
I01
sbtp394
sg29
g75
sg60
I01
sbg3
(g20
g5
NtRp395
(dp396
g15
(lp397
sg17
I64276328
sg18
Nsg19
(g3
(g24
g5
NtRp398
((I1
S'19L'
I2
I5
t(dp399
g27
I53
sg15
(lp400
sg17
I1093208711
sg18
Nsg19
(tsg29
g30
stbg65
g293
g152
tp401
sg29
g75
sg60
I01
sbg3
(g20
g5
NtRp402
(dp403
g15
(lp404
sg17
I85416945
sg18
Nsg19
(g3
(g24
g5
NtRp405
((I0
S'19L'
I1
I5
t(dp406
g27
I53
sg15
(lp407
sg17
I-1339727705
sg18
Nsg19
(tsg29
g30
stbg3
(g12
g5
NtRp408
(dp409
g15
(lp410
sg17
I-727559292
sg18
Nsg19
(g3
(g20
g5
NtRp411
(dp412
g15
(lp413
sg17
I314620998
sg18
Nsg19
(g379
g185
tp414
sg29
g148
sg60
I01
sbg3
(g20
g5
NtRp415
(dp416
g15
(lp417
sg17
I782545945
sg18
Nsg19
(g328
g160
tp418
sg29
g148
sg60
I01
sbtp419
sg29
g243
sg60
I01
sbg86
tp420
sg29
g75
sg60
I01
sbg3
(g20
g5
NtRp421
(dp422
g15
(lp423
sg17
I664484513
sg18
Nsg19
(g3
(g24
g5
NtRp424
((I0
S'19L'
I2
I5
t(dp425
g27
I53
sg15
(lp426
sg17
I1268300824
sg18
Nsg19
(tsg29
g30
stbg143
g50
g293
tp427
sg29
g75
sg60
I01
sbg3
(g20
g5
NtRp428
(dp429
g15
(lp430
sg17
I1031489414
sg18
Nsg19
(g3
(g24
g5
NtRp431
((I1
S'1a7L'
I-1
I9
t(dp432
g27
I53
sg15
(lp433
sg17
I1984254749
sg18
Nsg19
(tsg29
g30
stbg3
(g12
g5
NtRp434
(dp435
g15
(lp436
sg17
I-727559292
sg18
Nsg19
g419
sg29
g218
sg60
I01
sbg219
g86
tp437
sg29
g75
sg60
I01
sbg3
(g20
g5
NtRp438
(dp439
g15
(lp440
sg17
I1964201426
sg18
Nsg19
(g3
(g24
g5
NtRp441
((I0
S'1a7L'
I-1
I9
t(dp442
g27
I53
sg15
(lp443
sg17
I17136106
sg18
Nsg19
(tsg29
g30
stbg3
(g12
g5
NtRp444
(dp445
g15
(lp446
sg17
I-1491420891
sg18
Nsg19
(g3
(g20
g5
NtRp447
(dp448
g15
(lp449
sg17
I-1981309279
sg18
Nsg19
(g373
g253
tp450
sg29
g148
sg60
I01
sbg3
(g20
g5
NtRp451
(dp452
g15
(lp453
sg17
I1779310267
sg18
Nsg19
(g314
g191
tp454
sg29
g148
sg60
I01
sbtp455
sg29
g159
sg60
I01
sbg219
tp456
sg29
g75
sg60
I01
sbtp457
sg29
g243
sg60
I01
sbag3
(g12
g5
NtRp458
(dp459
g15
(lp460
sg17
I-1243317801
sg18
Nsg19
(g3
(g20
g5
NtRp461
(dp462
g15
(lp463
sg17
I-552864295
sg18
Nsg19
(g3
(g24
g5
NtRp464
((I0
S'19L'
I1
I5
t(dp465
g27
I53
sg15
(lp466
sg17
I-1339727705
sg18
Nsg19
(tsg29
g30
stbg3
(g12
g5
NtRp467
(dp468
g15
(lp469
sg17
I1178845388
sg18
Nsg19
(g3
(g20
g5
NtRp470
(dp471
g15
(lp472
sg17
I921321276
sg18
Nsg19
(g3
(g12
g5
NtRp473
(dp474
g15
(lp475
sg17
I-2131696453
sg18
Nsg19
(g3
(g20
g5
NtRp476
(dp477
g15
(lp478
sg17
I-1381435269
sg18
Nsg19
(g143
g314
g152
tp479
sg29
g385
sg60
I01
sbg3
(g20
g5
NtRp480
(dp481
g15
(lp482
sg17
I913848731
sg18
Nsg19
(g314
g50
g65
tp483
sg29
g385
sg60
I01
sbtp484
sg29
g218
sg60
I01
sbg185
tp485
sg29
g148
sg60
I01
sbg3
(g20
g5
NtRp486
(dp487
g15
(lp488
sg17
I1040232999
sg18
Nsg19
(g3
(g12
g5
NtRp489
(dp490
g15
(lp491
sg17
I-1781929299
sg18
Nsg19
(g3
(g20
g5
NtRp492
(dp493
g15
(lp494
sg17
I-746660832
sg18
Nsg19
(g129
g314
g65
g152
tp495
sg29
g148
sg60
I01
sbg3
(g20
g5
NtRp496
(dp497
g15
(lp498
sg17
I1999067616
sg18
Nsg19
(g143
g314
g50
tp499
sg29
g148
sg60
I01
sbtp500
sg29
g184
sg60
I01
sbg160
tp501
sg29
g148
sg60
I01
sbtp502
sg29
g243
sg60
I01
sbg86
tp503
sg29
g75
sg60
I01
sbg3
(g20
g5
NtRp504
(dp505
g15
(lp506
sg17
I-420078225
sg18
Nsg19
(g3
(g24
g5
NtRp507
((I0
S'1a7L'
I-1
I9
t(dp508
g27
I53
sg15
(lp509
sg17
I17136106
sg18
Nsg19
(tsg29
g30
stbg83
g3
(g12
g5
NtRp510
(dp511
g15
(lp512
sg17
I1683716492
sg18
Nsg19
(g3
(g20
g5
NtRp513
(dp514
g15
(lp515
sg17
I-1131887899
sg18
Nsg19
(g129
g253
g293
tp516
sg29
g385
sg60
I01
sbg3
(g20
g5
NtRp517
(dp518
g15
(lp519
sg17
I-943285028
sg18
Nsg19
(g129
g3
(g12
g5
NtRp520
(dp521
g15
(lp522
sg17
I-857250732
sg18
Nsg19
(g3
(g20
g5
NtRp523
(dp524
g15
(lp525
sg17
I-574929545
sg18
Nsg19
(g129
g473
g160
tp526
sg29
g385
sg60
I01
sbg3
(g20
g5
NtRp527
(dp528
g15
(lp529
sg17
I-37225802
sg18
Nsg19
(g489
g185
tp530
sg29
g148
sg60
I01
sbtp531
sg29
g218
sg60
I01
sbg191
tp532
sg29
g385
sg60
I01
sbtp533
sg29
g218
sg60
I01
sbtp534
sg29
g75
sg60
I01
sbg3
(g20
g5
NtRp535
(dp536
g15
(lp537
sg17
I-329719234
sg18
Nsg19
(g3
(g24
g5
NtRp538
((I0
S'19L'
I1
I5
t(dp539
g27
I53
sg15
(lp540
sg17
I-1339727705
sg18
Nsg19
(tsg29
g30
stbg3
(g12
g5
NtRp541
(dp542
g15
(lp543
sg17
I1683716492
sg18
Nsg19
(g3
(g20
g5
NtRp544
(dp545
g15
(lp546
sg17
I-1131887899
sg18
Nsg19
g516
sg29
g75
sg60
I01
sbg3
(g20
g5
NtRp547
(dp548
g15
(lp549
sg17
I-943285028
sg18
Nsg19
(g129
g3
(g12
g5
NtRp550
(dp551
g15
(lp552
sg17
I-857250732
sg18
Nsg19
(g3
(g20
g5
NtRp553
(dp554
g15
(lp555
sg17
I-574929545
sg18
Nsg19
(g129
g3
(g12
g5
NtRp556
(dp557
g15
(lp558
sg17
I-2131696453
sg18
Nsg19
(g3
(g20
g5
NtRp559
(dp560
g15
(lp561
sg17
I-1381435269
sg18
Nsg19
g479
sg29
g75
sg60
I01
sbg3
(g20
g5
NtRp562
(dp563
g15
(lp564
sg17
I913848731
sg18
Nsg19
g483
sg29
g75
sg60
I01
sbtp565
sg29
g243
sg60
I01
sbg160
tp566
sg29
g75
sg60
I01
sbg527
tp567
sg29
g243
sg60
I01
sbg191
tp568
sg29
g75
sg60
I01
sbtp569
sg29
g243
sg60
I01
sbg219
tp570
sg29
g75
sg60
I01
sbg3
(g20
g5
NtRp571
(dp572
g15
(lp573
sg17
I-40273938
sg18
Nsg19
(g3
(g24
g5
NtRp574
((I1
S'1a7L'
I-1
I9
t(dp575
g27
I53
sg15
(lp576
sg17
I1984254749
sg18
Nsg19
(tsg29
g30
stbg3
(g12
g5
NtRp577
(dp578
g15
(lp579
sg17
I1178845388
sg18
Nsg19
g502
sg29
g218
sg60
I01
sbg219
g86
tp580
sg29
g75
sg60
I01
sbg3
(g20
g5
NtRp581
(dp582
g15
(lp583
sg17
I117914555
sg18
Nsg19
(g3
(g24
g5
NtRp584
((I1
S'19L'
I2
I5
t(dp585
g27
I53
sg15
(lp586
sg17
I1093208711
sg18
Nsg19
(tsg29
g30
stbg314
g65
g152
tp587
sg29
g75
sg60
I01
sbg3
(g20
g5
NtRp588
(dp589
g15
(lp590
sg17
I1406817354
sg18
Nsg19
(g3
(g24
g5
NtRp591
((I0
S'19L'
I2
I5
t(dp592
g27
I53
sg15
(lp593
sg17
I1268300824
sg18
Nsg19
(tsg29
g30
stbg143
g314
g50
tp594
sg29
g75
sg60
I01
sbg3
(g20
g5
NtRp595
(dp596
g15
(lp597
sg17
I1631732189
sg18
Nsg19
(g3
(g24
g5
NtRp598
((I0
S'1a7L'
I-1
I9
t(dp599
g27
I53
sg15
(lp600
sg17
I17136106
sg18
Nsg19
(tsg29
g30
stbg3
(g12
g5
NtRp601
(dp602
g15
(lp603
sg17
I-1894291642
sg18
Nsg19
(g3
(g20
g5
NtRp604
(dp605
g15
(lp606
sg17
I-2135399298
sg18
Nsg19
(g129
g293
g191
tp607
sg29
g157
sg60
I01
sbg3
(g20
g5
NtRp608
(dp609
g15
(lp610
sg17
I-1246265053
sg18
Nsg19
(g520
g253
tp611
sg29
g148
sg60
I01
sbtp612
sg29
g159
sg60
I01
sbg219
tp613
sg29
g75
sg60
I01
sbg3
(g20
g5
NtRp614
(dp615
g15
(lp616
sg17
I1825908468
sg18
Nsg19
(g3
(g24
g5
NtRp617
((I0
S'cdccccccccccdL'
I-45
I52
t(dp618
g27
I53
sg15
(lp619
sg17
I-1358357444
sg18
Nsg19
(tsg29
g30
stbg143
g314
tp620
sg29
g75
sg60
I01
sbtp621
sg29
g243
sg60
I01
sbag3
(csympy.core.numbers
One
p622
g5
NtRp623
(dp624
S'q'
I1
sS'p'
I1
sg15
(lp625
sg17
I-1303377904
sg18
Nsg19
(tsg29
(dp626
S'prime'
p627
I01
sS'real'
p628
I01
sg33
I01
sg46
I01
sg35
I01
sS'nonpositive'
p629
I00
sS'composite'
p630
I00
sS'positive'
p631
I01
sS'noninteger'
p632
I00
sS'negative'
p633
I00
sg98
I01
sS'zero'
p634
I00
sg36
I00
sg43
I01
sS'rational'
p635
I01
sg38
I00
sS'integer'
p636
I01
sS'imaginary'
p637
I00
sg114
I01
sS'complex'
p638
I01
sS'irrational'
p639
I00
ssbasbsS'RHipPitch'
p640
g3
(g4
g5
NtRp641
(dp642
g8
I4
sg9
I1
sg10
(lp643
g3
(g12
g5
NtRp644
(dp645
g15
(lp646
sg17
I1600259684
sg18
Nsg19
(g3
(g20
g5
NtRp647
(dp648
g15
(lp649
sg17
I-1863975827
sg18
Nsg19
(g25
g50
g65
tp650
sg29
g75
sg60
I01
sbg258
g3
(g20
g5
NtRp651
(dp652
g15
(lp653
sg17
I2047094085
sg18
Nsg19
(g279
g143
g152
tp654
sg29
g75
sg60
I01
sbtp655
sg29
g243
sg60
I01
sbag3
(g12
g5
NtRp656
(dp657
g15
(lp658
sg17
I-1243912621
sg18
Nsg19
(g3
(g20
g5
NtRp659
(dp660
g15
(lp661
sg17
I-1787684853
sg18
Nsg19
(g290
g143
g293
tp662
sg29
g75
sg60
I01
sbg3
(g20
g5
NtRp663
(dp664
g15
(lp665
sg17
I64276328
sg18
Nsg19
(g398
g65
g293
g152
tp666
sg29
g75
sg60
I01
sbg3
(g20
g5
NtRp667
(dp668
g15
(lp669
sg17
I664484513
sg18
Nsg19
(g424
g143
g50
g293
tp670
sg29
g75
sg60
I01
sbtp671
sg29
g243
sg60
I01
sbag3
(g12
g5
NtRp672
(dp673
g15
(lp674
sg17
I-614185188
sg18
Nsg19
(g3
(g20
g5
NtRp675
(dp676
g15
(lp677
sg17
I117914555
sg18
Nsg19
(g584
g314
g65
g152
tp678
sg29
g75
sg60
I01
sbg3
(g20
g5
NtRp679
(dp680
g15
(lp681
sg17
I1406817354
sg18
Nsg19
(g591
g143
g314
g50
tp682
sg29
g75
sg60
I01
sbg3
(g20
g5
NtRp683
(dp684
g15
(lp685
sg17
I1825908468
sg18
Nsg19
(g617
g143
g314
tp686
sg29
g75
sg60
I01
sbtp687
sg29
g243
sg60
I01
sbag623
asbsS'RElbowYaw'
p688
g3
(g4
g5
NtRp689
(dp690
g8
I4
sg9
I1
sg10
(lp691
g3
(g12
g5
NtRp692
(dp693
g15
(lp694
sg17
I1827334978
sg18
Nsg19
(g3
(g20
g5
NtRp695
(dp696
g15
(lp697
sg17
I-1863975827
sg18
Nsg19
(g25
g50
g65
tp698
sg29
g75
sg60
I01
sbg3
(g20
g5
NtRp699
(dp700
g15
(lp701
sg17
I-1316789337
sg18
Nsg19
(g3
(g24
g5
NtRp702
((I1
S'fL'
I0
I4
t(dp703
g27
I53
sg15
(lp704
sg17
I504802494
sg18
Nsg19
(tsg29
g30
stbg3
(g12
g5
NtRp705
(dp706
g15
(lp707
sg17
I883581606
sg18
Nsg19
(g3
(g20
g5
NtRp708
(dp709
g15
(lp710
sg17
I-1805033272
sg18
Nsg19
(g206
g86
tp711
sg29
g148
sg60
I01
sbg3
(g20
g5
NtRp712
(dp713
g15
(lp714
sg17
I-1439899255
sg18
Nsg19
(g129
g230
g219
g191
tp715
sg29
g75
sg60
I01
sbtp716
sg29
g243
sg60
I01
sbg3
(g49
g5
NtRp717
(dp718
g18
Nsg19
(g3
(g52
g5
NtRp719
(dp720
g15
(lp721
sg56
S'RShoulderRoll'
p722
sg18
Nsg19
(tsg29
(dp723
g59
I00
ssg60
I01
sg17
I1793630638
sbtp724
sg15
(lp725
sg29
(dp726
sg17
I-2047169189
sbtp727
sg29
g75
sg60
I01
sbg3
(g20
g5
NtRp728
(dp729
g15
(lp730
sg17
I-1099486420
sg18
Nsg19
(g3
(g24
g5
NtRp731
((I1
S'69L'
I0
I7
t(dp732
g27
I53
sg15
(lp733
sg17
I626558143
sg18
Nsg19
(tsg29
g30
stbg3
(g12
g5
NtRp734
(dp735
g15
(lp736
sg17
I1347397435
sg18
Nsg19
(g3
(g20
g5
NtRp737
(dp738
g15
(lp739
sg17
I-658735203
sg18
Nsg19
(g129
g272
g219
g86
tp740
sg29
g75
sg60
I01
sbg3
(g20
g5
NtRp741
(dp742
g15
(lp743
sg17
I562398277
sg18
Nsg19
(g129
g83
g230
g191
tp744
sg29
g75
sg60
I01
sbg3
(g20
g5
NtRp745
(dp746
g15
(lp747
sg17
I1956839406
sg18
Nsg19
(g230
g253
g219
tp748
sg29
g75
sg60
I01
sbtp749
sg29
g243
sg60
I01
sbg3
(g64
g5
NtRp750
(dp751
g18
Nsg19
(g3
(g52
g5
NtRp752
(dp753
g15
(lp754
sg56
S'RShoulderPitch'
p755
sg18
Nsg19
(tsg29
g723
sg60
I01
sg17
I617900602
sbtp756
sg15
(lp757
sg29
(dp758
sg17
I926015484
sbtp759
sg29
g75
sg60
I01
sbg3
(g20
g5
NtRp760
(dp761
g15
(lp762
sg17
I-681377705
sg18
Nsg19
(g3
(g24
g5
NtRp763
((I1
S'b9L'
I0
I8
t(dp764
g27
I53
sg15
(lp765
sg17
I702179800
sg18
Nsg19
(tsg29
g30
stbg83
g122
g191
tp766
sg29
g75
sg60
I01
sbg3
(g20
g5
NtRp767
(dp768
g15
(lp769
sg17
I-578902411
sg18
Nsg19
(g3
(g24
g5
NtRp770
((I0
S'b9L'
I0
I8
t(dp771
g27
I53
sg15
(lp772
sg17
I1325761015
sg18
Nsg19
(tsg29
g30
stbg122
g253
g219
tp773
sg29
g75
sg60
I01
sbg3
(g20
g5
NtRp774
(dp775
g15
(lp776
sg17
I-229693968
sg18
Nsg19
(g3
(g24
g5
NtRp777
((I1
S'3L'
I4
I2
t(dp778
g27
I53
sg15
(lp779
sg17
I1310079404
sg18
Nsg19
(tsg29
g30
stbg206
g86
tp780
sg29
g75
sg60
I01
sbg3
(g20
g5
NtRp781
(dp782
g15
(lp783
sg17
I-185471286
sg18
Nsg19
(g3
(g24
g5
NtRp784
((I0
S'69L'
I0
I7
t(dp785
g27
I53
sg15
(lp786
sg17
I-1254343936
sg18
Nsg19
(tsg29
g30
stbg3
(g12
g5
NtRp787
(dp788
g15
(lp789
sg17
I1809787213
sg18
Nsg19
(g3
(g20
g5
NtRp790
(dp791
g15
(lp792
sg17
I-566307132
sg18
Nsg19
(g3
(g82
g5
NtRp793
(dp794
g15
(lp795
sg18
Nsg19
(g219
g109
tp796
sg29
g121
sg60
I01
sg17
I-1238972066
sbg272
tp797
sg29
g75
sg60
I01
sbg3
(g20
g5
NtRp798
(dp799
g15
(lp800
sg17
I-121743687
sg18
Nsg19
(g230
g219
g191
g86
tp801
sg29
g75
sg60
I01
sbg3
(g20
g5
NtRp802
(dp803
g15
(lp804
sg17
I1607305737
sg18
Nsg19
(g230
g253
g86
tp805
sg29
g75
sg60
I01
sbtp806
sg29
g243
sg60
I01
sbg3
(g49
g5
NtRp807
(dp808
g18
Nsg19
(g752
tp809
sg15
(lp810
sg29
g726
sg17
I-634483681
sbtp811
sg29
g75
sg60
I01
sbg3
(g20
g5
NtRp812
(dp813
g15
(lp814
sg17
I-177509473
sg18
Nsg19
(g3
(g24
g5
NtRp815
((I1
S'b9L'
I0
I8
t(dp816
g27
I53
sg15
(lp817
sg17
I702179800
sg18
Nsg19
(tsg29
g30
stbg206
g219
g86
tp818
sg29
g75
sg60
I01
sbg3
(g20
g5
NtRp819
(dp820
g15
(lp821
sg17
I1171619190
sg18
Nsg19
(g3
(g24
g5
NtRp822
((I0
S'3L'
I4
I2
t(dp823
g27
I53
sg15
(lp824
sg17
I1885197451
sg18
Nsg19
(tsg29
g30
stbg122
g219
g191
tp825
sg29
g75
sg60
I01
sbg258
g3
(g20
g5
NtRp826
(dp827
g15
(lp828
sg17
I1422824172
sg18
Nsg19
(g3
(g24
g5
NtRp829
((I1
S'fL'
I0
I4
t(dp830
g27
I53
sg15
(lp831
sg17
I504802494
sg18
Nsg19
(tsg29
g30
stbg3
(g12
g5
NtRp832
(dp833
g15
(lp834
sg17
I653291974
sg18
Nsg19
(g3
(g20
g5
NtRp835
(dp836
g15
(lp837
sg17
I-2021772167
sg18
Nsg19
(g787
g750
tp838
sg29
g75
sg60
I01
sbg3
(g20
g5
NtRp839
(dp840
g15
(lp841
sg17
I1112219514
sg18
Nsg19
(g734
g807
tp842
sg29
g75
sg60
I01
sbtp843
sg29
g243
sg60
I01
sbg3
(g64
g5
NtRp844
(dp845
g18
Nsg19
(g719
tp846
sg15
(lp847
sg29
g758
sg17
I-588663752
sbtp848
sg29
g75
sg60
I01
sbg3
(g20
g5
NtRp849
(dp850
g15
(lp851
sg17
I2047094085
sg18
Nsg19
(g279
g143
g152
tp852
sg29
g75
sg60
I01
sbtp853
sg29
g243
sg60
I01
sbag3
(g12
g5
NtRp854
(dp855
g15
(lp856
sg17
I-1143137636
sg18
Nsg19
(g3
(g20
g5
NtRp857
(dp858
g15
(lp859
sg17
I-2029788847
sg18
Nsg19
(g3
(g24
g5
NtRp860
((I1
S'69L'
I0
I7
t(dp861
g27
I53
sg15
(lp862
sg17
I626558143
sg18
Nsg19
(tsg29
g30
stbg3
(g12
g5
NtRp863
(dp864
g15
(lp865
sg17
I-2104620286
sg18
Nsg19
(g3
(g20
g5
NtRp866
(dp867
g15
(lp868
sg17
I195415714
sg18
Nsg19
(g83
g308
tp869
sg29
g75
sg60
I01
sbg3
(g20
g5
NtRp870
(dp871
g15
(lp872
sg17
I2012408331
sg18
Nsg19
(g129
g408
g219
g86
tp873
sg29
g75
sg60
I01
sbg3
(g20
g5
NtRp874
(dp875
g15
(lp876
sg17
I2123555050
sg18
Nsg19
(g444
g219
tp877
sg29
g148
sg60
I01
sbtp878
sg29
g243
sg60
I01
sbg750
tp879
sg29
g75
sg60
I01
sbg3
(g20
g5
NtRp880
(dp881
g15
(lp882
sg17
I-1787684853
sg18
Nsg19
(g290
g143
g293
tp883
sg29
g75
sg60
I01
sbg3
(g20
g5
NtRp884
(dp885
g15
(lp886
sg17
I-1633305618
sg18
Nsg19
(g3
(g24
g5
NtRp887
((I1
S'3L'
I4
I2
t(dp888
g27
I53
sg15
(lp889
sg17
I1310079404
sg18
Nsg19
(tsg29
g30
stbg434
g86
tp890
sg29
g75
sg60
I01
sbg3
(g20
g5
NtRp891
(dp892
g15
(lp893
sg17
I-1061010708
sg18
Nsg19
(g3
(g24
g5
NtRp894
((I1
S'fL'
I0
I4
t(dp895
g27
I53
sg15
(lp896
sg17
I504802494
sg18
Nsg19
(tsg29
g30
stbg3
(g12
g5
NtRp897
(dp898
g15
(lp899
sg17
I1337412449
sg18
Nsg19
(g3
(g20
g5
NtRp900
(dp901
g15
(lp902
sg17
I-1713898898
sg18
Nsg19
(g367
g219
tp903
sg29
g148
sg60
I01
sbg3
(g20
g5
NtRp904
(dp905
g15
(lp906
sg17
I2128477222
sg18
Nsg19
(g434
g86
tp907
sg29
g148
sg60
I01
sbtp908
sg29
g243
sg60
I01
sbg717
tp909
sg29
g75
sg60
I01
sbg3
(g20
g5
NtRp910
(dp911
g15
(lp912
sg17
I-264927632
sg18
Nsg19
(g3
(g24
g5
NtRp913
((I1
S'3L'
I4
I2
t(dp914
g27
I53
sg15
(lp915
sg17
I1310079404
sg18
Nsg19
(tsg29
g30
stbg367
g219
tp916
sg29
g75
sg60
I01
sbg3
(g20
g5
NtRp917
(dp918
g15
(lp919
sg17
I41861329
sg18
Nsg19
(g3
(g24
g5
NtRp920
((I0
S'69L'
I0
I7
t(dp921
g27
I53
sg15
(lp922
sg17
I-1254343936
sg18
Nsg19
(tsg29
g30
stbg3
(g12
g5
NtRp923
(dp924
g15
(lp925
sg17
I-701097110
sg18
Nsg19
(g3
(g20
g5
NtRp926
(dp927
g15
(lp928
sg17
I-1120203526
sg18
Nsg19
(g129
g308
g219
g86
tp929
sg29
g75
sg60
I01
sbg3
(g20
g5
NtRp930
(dp931
g15
(lp932
sg17
I-334462917
sg18
Nsg19
(g444
g86
tp933
sg29
g148
sg60
I01
sbg3
(g20
g5
NtRp934
(dp935
g15
(lp936
sg17
I1021029034
sg18
Nsg19
(g793
g408
tp937
sg29
g75
sg60
I01
sbtp938
sg29
g243
sg60
I01
sbg807
tp939
sg29
g75
sg60
I01
sbg3
(g20
g5
NtRp940
(dp941
g15
(lp942
sg17
I64276328
sg18
Nsg19
(g398
g65
g293
g152
tp943
sg29
g75
sg60
I01
sbg3
(g20
g5
NtRp944
(dp945
g15
(lp946
sg17
I337911883
sg18
Nsg19
(g3
(g24
g5
NtRp947
((I0
S'b9L'
I0
I8
t(dp948
g27
I53
sg15
(lp949
sg17
I1325761015
sg18
Nsg19
(tsg29
g30
stbg444
g219
tp950
sg29
g75
sg60
I01
sbg3
(g20
g5
NtRp951
(dp952
g15
(lp953
sg17
I456321241
sg18
Nsg19
(g3
(g24
g5
NtRp954
((I1
S'b9L'
I0
I8
t(dp955
g27
I53
sg15
(lp956
sg17
I702179800
sg18
Nsg19
(tsg29
g30
stbg434
g219
g86
tp957
sg29
g75
sg60
I01
sbg3
(g20
g5
NtRp958
(dp959
g15
(lp960
sg17
I664484513
sg18
Nsg19
(g424
g143
g50
g293
tp961
sg29
g75
sg60
I01
sbg3
(g20
g5
NtRp962
(dp963
g15
(lp964
sg17
I1194388763
sg18
Nsg19
(g3
(g24
g5
NtRp965
((I0
S'b9L'
I0
I8
t(dp966
g27
I53
sg15
(lp967
sg17
I1325761015
sg18
Nsg19
(tsg29
g30
stbg83
g367
tp968
sg29
g75
sg60
I01
sbg3
(g20
g5
NtRp969
(dp970
g15
(lp971
sg17
I2110698532
sg18
Nsg19
(g3
(g24
g5
NtRp972
((I1
S'fL'
I0
I4
t(dp973
g27
I53
sg15
(lp974
sg17
I504802494
sg18
Nsg19
(tsg29
g30
stbg3
(g12
g5
NtRp975
(dp976
g15
(lp977
sg17
I1820845806
sg18
Nsg19
(g3
(g20
g5
NtRp978
(dp979
g15
(lp980
sg17
I1318605966
sg18
Nsg19
(g923
g750
tp981
sg29
g75
sg60
I01
sbg3
(g20
g5
NtRp982
(dp983
g15
(lp984
sg17
I1922373787
sg18
Nsg19
(g863
g807
tp985
sg29
g75
sg60
I01
sbtp986
sg29
g243
sg60
I01
sbg844
tp987
sg29
g75
sg60
I01
sbtp988
sg29
g243
sg60
I01
sbag3
(g12
g5
NtRp989
(dp990
g15
(lp991
sg17
I-576591733
sg18
Nsg19
(g3
(g20
g5
NtRp992
(dp993
g15
(lp994
sg17
I-1419945434
sg18
Nsg19
(g3
(g24
g5
NtRp995
((I1
S'fL'
I0
I4
t(dp996
g27
I53
sg15
(lp997
sg17
I504802494
sg18
Nsg19
(tsg29
g30
stbg3
(g12
g5
NtRp998
(dp999
g15
(lp1000
sg17
I1091797156
sg18
Nsg19
(g3
(g20
g5
NtRp1001
(dp1002
g15
(lp1003
sg17
I-1371574928
sg18
Nsg19
(g3
(g12
g5
NtRp1004
(dp1005
g15
(lp1006
sg17
I321467228
sg18
Nsg19
(g3
(g20
g5
NtRp1007
(dp1008
g15
(lp1009
sg17
I-983352653
sg18
Nsg19
(g129
g541
g219
g86
tp1010
sg29
g75
sg60
I01
sbg3
(g20
g5
NtRp1011
(dp1012
g15
(lp1013
sg17
I1658637748
sg18
Nsg19
(g601
g86
tp1014
sg29
g148
sg60
I01
sbg3
(g20
g5
NtRp1015
(dp1016
g15
(lp1017
sg17
I1858677042
sg18
Nsg19
(g793
g467
tp1018
sg29
g75
sg60
I01
sbtp1019
sg29
g243
sg60
I01
sbg750
tp1020
sg29
g75
sg60
I01
sbg3
(g20
g5
NtRp1021
(dp1022
g15
(lp1023
sg17
I938606275
sg18
Nsg19
(g3
(g12
g5
NtRp1024
(dp1025
g15
(lp1026
sg17
I41544554
sg18
Nsg19
(g3
(g20
g5
NtRp1027
(dp1028
g15
(lp1029
sg17
I-2073381901
sg18
Nsg19
(g129
g467
g219
g86
tp1030
sg29
g75
sg60
I01
sbg3
(g20
g5
NtRp1031
(dp1032
g15
(lp1033
sg17
I-1792331663
sg18
Nsg19
(g601
g219
tp1034
sg29
g148
sg60
I01
sbg3
(g20
g5
NtRp1035
(dp1036
g15
(lp1037
sg17
I-602296315
sg18
Nsg19
(g83
g541
tp1038
sg29
g75
sg60
I01
sbtp1039
sg29
g243
sg60
I01
sbg807
tp1040
sg29
g75
sg60
I01
sbtp1041
sg29
g243
sg60
I01
sbg844
tp1042
sg29
g75
sg60
I01
sbg3
(g20
g5
NtRp1043
(dp1044
g15
(lp1045
sg17
I-950674938
sg18
Nsg19
(g3
(g24
g5
NtRp1046
((I1
S'3L'
I4
I2
t(dp1047
g27
I53
sg15
(lp1048
sg17
I1310079404
sg18
Nsg19
(tsg29
g30
stbg577
g86
tp1049
sg29
g75
sg60
I01
sbg3
(g20
g5
NtRp1050
(dp1051
g15
(lp1052
sg17
I-774959090
sg18
Nsg19
(g3
(g24
g5
NtRp1053
((I0
S'b9L'
I0
I8
t(dp1054
g27
I53
sg15
(lp1055
sg17
I1325761015
sg18
Nsg19
(tsg29
g30
stbg83
g510
tp1056
sg29
g75
sg60
I01
sbg3
(g20
g5
NtRp1057
(dp1058
g15
(lp1059
sg17
I-753387999
sg18
Nsg19
(g3
(g24
g5
NtRp1060
((I1
S'3L'
I4
I2
t(dp1061
g27
I53
sg15
(lp1062
sg17
I1310079404
sg18
Nsg19
(tsg29
g30
stbg510
g219
tp1063
sg29
g75
sg60
I01
sbg3
(g20
g5
NtRp1064
(dp1065
g15
(lp1066
sg17
I117914555
sg18
Nsg19
(g584
g314
g65
g152
tp1067
sg29
g75
sg60
I01
sbg3
(g20
g5
NtRp1068
(dp1069
g15
(lp1070
sg17
I167261279
sg18
Nsg19
(g3
(g24
g5
NtRp1071
((I0
S'69L'
I0
I7
t(dp1072
g27
I53
sg15
(lp1073
sg17
I-1254343936
sg18
Nsg19
(tsg29
g30
stbg1004
g807
tp1074
sg29
g75
sg60
I01
sbg3
(g20
g5
NtRp1075
(dp1076
g15
(lp1077
sg17
I266045577
sg18
Nsg19
(g3
(g24
g5
NtRp1078
((I1
S'69L'
I0
I7
t(dp1079
g27
I53
sg15
(lp1080
sg17
I626558143
sg18
Nsg19
(tsg29
g30
stbg1024
g750
tp1081
sg29
g75
sg60
I01
sbg3
(g20
g5
NtRp1082
(dp1083
g15
(lp1084
sg17
I1356560421
sg18
Nsg19
(g3
(g24
g5
NtRp1085
((I1
S'fL'
I0
I4
t(dp1086
g27
I53
sg15
(lp1087
sg17
I504802494
sg18
Nsg19
(tsg29
g30
stbg3
(g12
g5
NtRp1088
(dp1089
g15
(lp1090
sg17
I-1496565060
sg18
Nsg19
(g3
(g20
g5
NtRp1091
(dp1092
g15
(lp1093
sg17
I1154595271
sg18
Nsg19
(g510
g219
tp1094
sg29
g148
sg60
I01
sbg3
(g20
g5
NtRp1095
(dp1096
g15
(lp1097
sg17
I1206459182
sg18
Nsg19
(g577
g86
tp1098
sg29
g148
sg60
I01
sbtp1099
sg29
g243
sg60
I01
sbg717
tp1100
sg29
g75
sg60
I01
sbg3
(g20
g5
NtRp1101
(dp1102
g15
(lp1103
sg17
I1406817354
sg18
Nsg19
(g591
g143
g314
g50
tp1104
sg29
g75
sg60
I01
sbg3
(g20
g5
NtRp1105
(dp1106
g15
(lp1107
sg17
I1525926284
sg18
Nsg19
(g3
(g24
g5
NtRp1108
((I0
S'b9L'
I0
I8
t(dp1109
g27
I53
sg15
(lp1110
sg17
I1325761015
sg18
Nsg19
(tsg29
g30
stbg601
g219
tp1111
sg29
g75
sg60
I01
sbg3
(g20
g5
NtRp1112
(dp1113
g15
(lp1114
sg17
I1648429169
sg18
Nsg19
(g3
(g24
g5
NtRp1115
((I1
S'b9L'
I0
I8
t(dp1116
g27
I53
sg15
(lp1117
sg17
I702179800
sg18
Nsg19
(tsg29
g30
stbg577
g219
g86
tp1118
sg29
g75
sg60
I01
sbg3
(g20
g5
NtRp1119
(dp1120
g15
(lp1121
sg17
I1825908468
sg18
Nsg19
(g617
g143
g314
tp1122
sg29
g75
sg60
I01
sbtp1123
sg29
g243
sg60
I01
sbag623
asbsS'RShoulderPitch'
p1124
g3
(g4
g5
NtRp1125
(dp1126
g8
I4
sg9
I1
sg10
(lp1127
g3
(g12
g5
NtRp1128
(dp1129
g15
(lp1130
sg17
I-484445373
sg18
Nsg19
(g3
(g20
g5
NtRp1131
(dp1132
g15
(lp1133
sg17
I-1863975827
sg18
Nsg19
(g25
g50
g65
tp1134
sg29
g75
sg60
I01
sbg3
(g20
g5
NtRp1135
(dp1136
g15
(lp1137
sg17
I-681377705
sg18
Nsg19
(g763
g83
g122
g191
tp1138
sg29
g75
sg60
I01
sbg3
(g20
g5
NtRp1139
(dp1140
g15
(lp1141
sg17
I-578902411
sg18
Nsg19
(g770
g122
g253
g219
tp1142
sg29
g75
sg60
I01
sbg3
(g20
g5
NtRp1143
(dp1144
g15
(lp1145
sg17
I-229693968
sg18
Nsg19
(g777
g206
g86
tp1146
sg29
g75
sg60
I01
sbg3
(g20
g5
NtRp1147
(dp1148
g15
(lp1149
sg17
I-177509473
sg18
Nsg19
(g815
g206
g219
g86
tp1150
sg29
g75
sg60
I01
sbg3
(g20
g5
NtRp1151
(dp1152
g15
(lp1153
sg17
I1171619190
sg18
Nsg19
(g822
g122
g219
g191
tp1154
sg29
g75
sg60
I01
sbg258
g3
(g20
g5
NtRp1155
(dp1156
g15
(lp1157
sg17
I2047094085
sg18
Nsg19
(g279
g143
g152
tp1158
sg29
g75
sg60
I01
sbtp1159
sg29
g243
sg60
I01
sbag3
(g12
g5
NtRp1160
(dp1161
g15
(lp1162
sg17
I660308480
sg18
Nsg19
(g3
(g20
g5
NtRp1163
(dp1164
g15
(lp1165
sg17
I-1787684853
sg18
Nsg19
(g290
g143
g293
tp1166
sg29
g75
sg60
I01
sbg3
(g20
g5
NtRp1167
(dp1168
g15
(lp1169
sg17
I-1633305618
sg18
Nsg19
(g887
g434
g86
tp1170
sg29
g75
sg60
I01
sbg3
(g20
g5
NtRp1171
(dp1172
g15
(lp1173
sg17
I-264927632
sg18
Nsg19
(g913
g367
g219
tp1174
sg29
g75
sg60
I01
sbg3
(g20
g5
NtRp1175
(dp1176
g15
(lp1177
sg17
I64276328
sg18
Nsg19
(g398
g65
g293
g152
tp1178
sg29
g75
sg60
I01
sbg3
(g20
g5
NtRp1179
(dp1180
g15
(lp1181
sg17
I337911883
sg18
Nsg19
(g947
g444
g219
tp1182
sg29
g75
sg60
I01
sbg3
(g20
g5
NtRp1183
(dp1184
g15
(lp1185
sg17
I456321241
sg18
Nsg19
(g954
g434
g219
g86
tp1186
sg29
g75
sg60
I01
sbg3
(g20
g5
NtRp1187
(dp1188
g15
(lp1189
sg17
I664484513
sg18
Nsg19
(g424
g143
g50
g293
tp1190
sg29
g75
sg60
I01
sbg3
(g20
g5
NtRp1191
(dp1192
g15
(lp1193
sg17
I1194388763
sg18
Nsg19
(g965
g83
g367
tp1194
sg29
g75
sg60
I01
sbtp1195
sg29
g243
sg60
I01
sbag3
(g12
g5
NtRp1196
(dp1197
g15
(lp1198
sg17
I1494402624
sg18
Nsg19
(g3
(g20
g5
NtRp1199
(dp1200
g15
(lp1201
sg17
I-950674938
sg18
Nsg19
(g1046
g577
g86
tp1202
sg29
g75
sg60
I01
sbg3
(g20
g5
NtRp1203
(dp1204
g15
(lp1205
sg17
I-774959090
sg18
Nsg19
(g1053
g83
g510
tp1206
sg29
g75
sg60
I01
sbg3
(g20
g5
NtRp1207
(dp1208
g15
(lp1209
sg17
I-753387999
sg18
Nsg19
(g1060
g510
g219
tp1210
sg29
g75
sg60
I01
sbg3
(g20
g5
NtRp1211
(dp1212
g15
(lp1213
sg17
I117914555
sg18
Nsg19
(g584
g314
g65
g152
tp1214
sg29
g75
sg60
I01
sbg3
(g20
g5
NtRp1215
(dp1216
g15
(lp1217
sg17
I1406817354
sg18
Nsg19
(g591
g143
g314
g50
tp1218
sg29
g75
sg60
I01
sbg3
(g20
g5
NtRp1219
(dp1220
g15
(lp1221
sg17
I1525926284
sg18
Nsg19
(g1108
g601
g219
tp1222
sg29
g75
sg60
I01
sbg3
(g20
g5
NtRp1223
(dp1224
g15
(lp1225
sg17
I1648429169
sg18
Nsg19
(g1115
g577
g219
g86
tp1226
sg29
g75
sg60
I01
sbg3
(g20
g5
NtRp1227
(dp1228
g15
(lp1229
sg17
I1825908468
sg18
Nsg19
(g617
g143
g314
tp1230
sg29
g75
sg60
I01
sbtp1231
sg29
g243
sg60
I01
sbag623
asbsS'LShoulderPitch'
p1232
g3
(g4
g5
NtRp1233
(dp1234
g8
I4
sg9
I1
sg10
(lp1235
g3
(g12
g5
NtRp1236
(dp1237
g15
(lp1238
sg17
I549829349
sg18
Nsg19
(g3
(g20
g5
NtRp1239
(dp1240
g15
(lp1241
sg17
I-1863975827
sg18
Nsg19
(g25
g50
g65
tp1242
sg29
g75
sg60
I01
sbg3
(g20
g5
NtRp1243
(dp1244
g15
(lp1245
sg17
I-681377705
sg18
Nsg19
(g3
(g24
g5
NtRp1246
((I1
S'b9L'
I0
I8
t(dp1247
g27
I53
sg15
(lp1248
sg17
I702179800
sg18
Nsg19
(tsg29
g30
stbg83
g122
g191
tp1249
sg29
g75
sg60
I01
sbg3
(g20
g5
NtRp1250
(dp1251
g15
(lp1252
sg17
I-606518381
sg18
Nsg19
(g3
(g24
g5
NtRp1253
((I1
S'25L'
I2
I6
t(dp1254
g27
I53
sg15
(lp1255
sg17
I1387477504
sg18
Nsg19
(tsg29
g30
stbg122
g219
g191
tp1256
sg29
g75
sg60
I01
sbg3
(g20
g5
NtRp1257
(dp1258
g15
(lp1259
sg17
I-578902411
sg18
Nsg19
(g3
(g24
g5
NtRp1260
((I0
S'b9L'
I0
I8
t(dp1261
g27
I53
sg15
(lp1262
sg17
I1325761015
sg18
Nsg19
(tsg29
g30
stbg122
g253
g219
tp1263
sg29
g75
sg60
I01
sbg3
(g20
g5
NtRp1264
(dp1265
g15
(lp1266
sg17
I-177509473
sg18
Nsg19
(g3
(g24
g5
NtRp1267
((I1
S'b9L'
I0
I8
t(dp1268
g27
I53
sg15
(lp1269
sg17
I702179800
sg18
Nsg19
(tsg29
g30
stbg206
g219
g86
tp1270
sg29
g75
sg60
I01
sbg258
g3
(g20
g5
NtRp1271
(dp1272
g15
(lp1273
sg17
I1844369431
sg18
Nsg19
(g3
(g24
g5
NtRp1274
((I0
S'25L'
I2
I6
t(dp1275
g27
I53
sg15
(lp1276
sg17
I691177991
sg18
Nsg19
(tsg29
g30
stbg206
g86
tp1277
sg29
g75
sg60
I01
sbg3
(g20
g5
NtRp1278
(dp1279
g15
(lp1280
sg17
I2047094085
sg18
Nsg19
(g279
g143
g152
tp1281
sg29
g75
sg60
I01
sbtp1282
sg29
g243
sg60
I01
sbag3
(g12
g5
NtRp1283
(dp1284
g15
(lp1285
sg17
I234772248
sg18
Nsg19
(g3
(g20
g5
NtRp1286
(dp1287
g15
(lp1288
sg17
I-1787684853
sg18
Nsg19
(g290
g143
g293
tp1289
sg29
g75
sg60
I01
sbg3
(g20
g5
NtRp1290
(dp1291
g15
(lp1292
sg17
I64276328
sg18
Nsg19
(g398
g65
g293
g152
tp1293
sg29
g75
sg60
I01
sbg3
(g20
g5
NtRp1294
(dp1295
g15
(lp1296
sg17
I337911883
sg18
Nsg19
(g3
(g24
g5
NtRp1297
((I0
S'b9L'
I0
I8
t(dp1298
g27
I53
sg15
(lp1299
sg17
I1325761015
sg18
Nsg19
(tsg29
g30
stbg444
g219
tp1300
sg29
g75
sg60
I01
sbg3
(g20
g5
NtRp1301
(dp1302
g15
(lp1303
sg17
I456321241
sg18
Nsg19
(g3
(g24
g5
NtRp1304
((I1
S'b9L'
I0
I8
t(dp1305
g27
I53
sg15
(lp1306
sg17
I702179800
sg18
Nsg19
(tsg29
g30
stbg434
g219
g86
tp1307
sg29
g75
sg60
I01
sbg3
(g20
g5
NtRp1308
(dp1309
g15
(lp1310
sg17
I664484513
sg18
Nsg19
(g424
g143
g50
g293
tp1311
sg29
g75
sg60
I01
sbg3
(g20
g5
NtRp1312
(dp1313
g15
(lp1314
sg17
I1194388763
sg18
Nsg19
(g3
(g24
g5
NtRp1315
((I0
S'b9L'
I0
I8
t(dp1316
g27
I53
sg15
(lp1317
sg17
I1325761015
sg18
Nsg19
(tsg29
g30
stbg83
g367
tp1318
sg29
g75
sg60
I01
sbg3
(g20
g5
NtRp1319
(dp1320
g15
(lp1321
sg17
I1610670647
sg18
Nsg19
(g3
(g24
g5
NtRp1322
((I0
S'25L'
I2
I6
t(dp1323
g27
I53
sg15
(lp1324
sg17
I691177991
sg18
Nsg19
(tsg29
g30
stbg367
g219
tp1325
sg29
g75
sg60
I01
sbg3
(g20
g5
NtRp1326
(dp1327
g15
(lp1328
sg17
I2141785617
sg18
Nsg19
(g3
(g24
g5
NtRp1329
((I0
S'25L'
I2
I6
t(dp1330
g27
I53
sg15
(lp1331
sg17
I691177991
sg18
Nsg19
(tsg29
g30
stbg434
g86
tp1332
sg29
g75
sg60
I01
sbtp1333
sg29
g243
sg60
I01
sbag3
(g12
g5
NtRp1334
(dp1335
g15
(lp1336
sg17
I-1288204812
sg18
Nsg19
(g3
(g20
g5
NtRp1337
(dp1338
g15
(lp1339
sg17
I-774959090
sg18
Nsg19
(g3
(g24
g5
NtRp1340
((I0
S'b9L'
I0
I8
t(dp1341
g27
I53
sg15
(lp1342
sg17
I1325761015
sg18
Nsg19
(tsg29
g30
stbg83
g510
tp1343
sg29
g75
sg60
I01
sbg3
(g20
g5
NtRp1344
(dp1345
g15
(lp1346
sg17
I-523549575
sg18
Nsg19
(g3
(g24
g5
NtRp1347
((I0
S'25L'
I2
I6
t(dp1348
g27
I53
sg15
(lp1349
sg17
I691177991
sg18
Nsg19
(tsg29
g30
stbg577
g86
tp1350
sg29
g75
sg60
I01
sbg3
(g20
g5
NtRp1351
(dp1352
g15
(lp1353
sg17
I117914555
sg18
Nsg19
(g584
g314
g65
g152
tp1354
sg29
g75
sg60
I01
sbg3
(g20
g5
NtRp1355
(dp1356
g15
(lp1357
sg17
I368653470
sg18
Nsg19
(g3
(g24
g5
NtRp1358
((I0
S'25L'
I2
I6
t(dp1359
g27
I53
sg15
(lp1360
sg17
I691177991
sg18
Nsg19
(tsg29
g30
stbg510
g219
tp1361
sg29
g75
sg60
I01
sbg3
(g20
g5
NtRp1362
(dp1363
g15
(lp1364
sg17
I1406817354
sg18
Nsg19
(g591
g143
g314
g50
tp1365
sg29
g75
sg60
I01
sbg3
(g20
g5
NtRp1366
(dp1367
g15
(lp1368
sg17
I1525926284
sg18
Nsg19
(g3
(g24
g5
NtRp1369
((I0
S'b9L'
I0
I8
t(dp1370
g27
I53
sg15
(lp1371
sg17
I1325761015
sg18
Nsg19
(tsg29
g30
stbg601
g219
tp1372
sg29
g75
sg60
I01
sbg3
(g20
g5
NtRp1373
(dp1374
g15
(lp1375
sg17
I1648429169
sg18
Nsg19
(g3
(g24
g5
NtRp1376
((I1
S'b9L'
I0
I8
t(dp1377
g27
I53
sg15
(lp1378
sg17
I702179800
sg18
Nsg19
(tsg29
g30
stbg577
g219
g86
tp1379
sg29
g75
sg60
I01
sbg3
(g20
g5
NtRp1380
(dp1381
g15
(lp1382
sg17
I1825908468
sg18
Nsg19
(g617
g143
g314
tp1383
sg29
g75
sg60
I01
sbtp1384
sg29
g243
sg60
I01
sbag623
asbsS'LKneePitch'
p1385
g3
(g4
g5
NtRp1386
(dp1387
g8
I4
sg9
I1
sg10
(lp1388
g3
(g12
g5
NtRp1389
(dp1390
g15
(lp1391
sg17
I932100696
sg18
Nsg19
(g3
(g20
g5
NtRp1392
(dp1393
g15
(lp1394
sg17
I-1863975827
sg18
Nsg19
(g25
g50
g65
tp1395
sg29
g75
sg60
I01
sbg3
(g20
g5
NtRp1396
(dp1397
g15
(lp1398
sg17
I-653208924
sg18
Nsg19
(g3
(g24
g5
NtRp1399
((I0
S'19L'
I2
I5
t(dp1400
g27
I53
sg15
(lp1401
sg17
I1268300824
sg18
Nsg19
(tsg29
g30
stbg272
g86
tp1402
sg29
g75
sg60
I01
sbg3
(g20
g5
NtRp1403
(dp1404
g15
(lp1405
sg17
I-521980125
sg18
Nsg19
(g3
(g24
g5
NtRp1406
((I1
S'19L'
I2
I5
t(dp1407
g27
I53
sg15
(lp1408
sg17
I1093208711
sg18
Nsg19
(tsg29
g30
stbg3
(g12
g5
NtRp1409
(dp1410
g15
(lp1411
sg17
I-120993989
sg18
Nsg19
(g3
(g20
g5
NtRp1412
(dp1413
g15
(lp1414
sg17
I441387101
sg18
Nsg19
(g3
(g12
g5
NtRp1415
(dp1416
g15
(lp1417
sg17
I-2078079004
sg18
Nsg19
(g3
(g20
g5
NtRp1418
(dp1419
g15
(lp1420
sg17
I-1745151630
sg18
Nsg19
(g734
g3
(g49
g5
NtRp1421
(dp1422
g18
Nsg19
(g3
(g20
g5
NtRp1423
(dp1424
g15
(lp1425
sg17
I-883896718
sg18
Nsg19
(g3
(g24
g5
NtRp1426
((I0
S'1L'
I-1
I1
t(dp1427
g27
I53
sg15
(lp1428
sg17
I1916041984
sg18
Nsg19
(tsg29
(dp1429
g95
I00
sg38
I00
sg41
I00
sg47
I00
sg39
I00
sg35
I01
sg96
I01
sg34
I01
sg97
I00
sg42
I01
sg46
I01
sg31
I01
sg32
I01
sg33
I01
sg48
I00
sg37
I00
sg43
I01
sg44
I00
sg45
I00
sg40
I00
sg98
I01
sg36
I00
sstbg3
(g52
g5
NtRp1430
(dp1431
g15
(lp1432
sg56
S'LHipYawPitch'
p1433
sg18
Nsg19
(tsg29
(dp1434
g59
I00
ssg60
I01
sg17
I484139538
sbtp1435
sg29
(dp1436
g105
I00
ssg60
I01
sbtp1437
sg15
(lp1438
sg29
(dp1439
sg17
I1687297479
sbtp1440
sg29
g75
sg60
I01
sbg3
(g20
g5
NtRp1441
(dp1442
g15
(lp1443
sg17
I-1675426510
sg18
Nsg19
(g787
g1421
g3
(g64
g5
NtRp1444
(dp1445
g18
Nsg19
(g1423
tp1446
sg15
(lp1447
sg29
(dp1448
sg17
I2090369060
sbtp1449
sg29
g75
sg60
I01
sbg3
(g20
g5
NtRp1450
(dp1451
g15
(lp1452
sg17
I327584569
sg18
Nsg19
(g3
(g82
g5
NtRp1453
(dp1454
g15
(lp1455
sg18
Nsg19
(g1444
g109
tp1456
sg29
(dp1457
sg60
I01
sg17
I1188525851
sbg705
tp1458
sg29
g75
sg60
I01
sbtp1459
sg29
g243
sg60
I01
sbg3
(g49
g5
NtRp1460
(dp1461
g18
Nsg19
(g3
(g52
g5
NtRp1462
(dp1463
g15
(lp1464
sg56
S'LHipRoll'
p1465
sg18
Nsg19
(tsg29
g1434
sg60
I01
sg17
I-584538562
sbtp1466
sg15
(lp1467
sg29
g1439
sg17
I637879723
sbtp1468
sg29
g75
sg60
I01
sbg3
(g20
g5
NtRp1469
(dp1470
g15
(lp1471
sg17
I657435325
sg18
Nsg19
(g129
g3
(g12
g5
NtRp1472
(dp1473
g15
(lp1474
sg17
I-1533766041
sg18
Nsg19
(g3
(g20
g5
NtRp1475
(dp1476
g15
(lp1477
sg17
I-611442377
sg18
Nsg19
(g705
g1421
tp1478
sg29
g75
sg60
I01
sbg3
(g20
g5
NtRp1479
(dp1480
g15
(lp1481
sg17
I1020575195
sg18
Nsg19
(g129
g787
g1444
tp1482
sg29
g75
sg60
I01
sbtp1483
sg29
g243
sg60
I01
sbg3
(g64
g5
NtRp1484
(dp1485
g18
Nsg19
(g1462
tp1486
sg15
(lp1487
sg29
g1448
sg17
I-2047284856
sbtp1488
sg29
g75
sg60
I01
sbtp1489
sg29
g243
sg60
I01
sbg3
(g49
g5
NtRp1490
(dp1491
g18
Nsg19
(g3
(g52
g5
NtRp1492
(dp1493
g15
(lp1494
sg56
S'LHipPitch'
p1495
sg18
Nsg19
(tsg29
g1434
sg60
I01
sg17
I1665113806
sbtp1496
sg15
(lp1497
sg29
g1439
sg17
I-605468805
sbtp1498
sg29
g75
sg60
I01
sbg3
(g20
g5
NtRp1499
(dp1500
g15
(lp1501
sg17
I-513226414
sg18
Nsg19
(g3
(g24
g5
NtRp1502
((I1
S'19L'
I2
I5
t(dp1503
g27
I53
sg15
(lp1504
sg17
I1093208711
sg18
Nsg19
(tsg29
g30
stbg230
g219
g191
tp1505
sg29
g75
sg60
I01
sbg258
g3
(g20
g5
NtRp1506
(dp1507
g15
(lp1508
sg17
I1570107897
sg18
Nsg19
(g3
(g24
g5
NtRp1509
((I1
S'19L'
I2
I5
t(dp1510
g27
I53
sg15
(lp1511
sg17
I1093208711
sg18
Nsg19
(tsg29
g30
stbg3
(g12
g5
NtRp1512
(dp1513
g15
(lp1514
sg17
I474923862
sg18
Nsg19
(g3
(g20
g5
NtRp1515
(dp1516
g15
(lp1517
sg17
I-1321292157
sg18
Nsg19
(g3
(g82
g5
NtRp1518
(dp1519
g15
(lp1520
sg18
Nsg19
(g1421
g109
tp1521
sg29
g1457
sg60
I01
sg17
I-2079379784
sbg787
tp1522
sg29
g75
sg60
I01
sbg3
(g20
g5
NtRp1523
(dp1524
g15
(lp1525
sg17
I1242017165
sg18
Nsg19
(g129
g734
g1444
tp1526
sg29
g75
sg60
I01
sbg3
(g20
g5
NtRp1527
(dp1528
g15
(lp1529
sg17
I1751142413
sg18
Nsg19
(g705
g1421
g1444
tp1530
sg29
g75
sg60
I01
sbtp1531
sg29
g243
sg60
I01
sbg3
(g64
g5
NtRp1532
(dp1533
g18
Nsg19
(g1492
tp1534
sg15
(lp1535
sg29
g1448
sg17
I-506123048
sbtp1536
sg29
g75
sg60
I01
sbg3
(g20
g5
NtRp1537
(dp1538
g15
(lp1539
sg17
I2047094085
sg18
Nsg19
(g279
g143
g152
tp1540
sg29
g75
sg60
I01
sbtp1541
sg29
g243
sg60
I01
sbag3
(g12
g5
NtRp1542
(dp1543
g15
(lp1544
sg17
I-527772511
sg18
Nsg19
(g3
(g20
g5
NtRp1545
(dp1546
g15
(lp1547
sg17
I-1787684853
sg18
Nsg19
(g290
g143
g293
tp1548
sg29
g75
sg60
I01
sbg3
(g20
g5
NtRp1549
(dp1550
g15
(lp1551
sg17
I-1272890838
sg18
Nsg19
(g3
(g24
g5
NtRp1552
((I1
S'19L'
I2
I5
t(dp1553
g27
I53
sg15
(lp1554
sg17
I1093208711
sg18
Nsg19
(tsg29
g30
stbg3
(g12
g5
NtRp1555
(dp1556
g15
(lp1557
sg17
I-1183966815
sg18
Nsg19
(g3
(g20
g5
NtRp1558
(dp1559
g15
(lp1560
sg17
I305165880
sg18
Nsg19
(g129
g863
g1444
tp1561
sg29
g75
sg60
I01
sbg3
(g20
g5
NtRp1562
(dp1563
g15
(lp1564
sg17
I1687522142
sg18
Nsg19
(g897
g1421
g1444
tp1565
sg29
g75
sg60
I01
sbg3
(g20
g5
NtRp1566
(dp1567
g15
(lp1568
sg17
I2145934450
sg18
Nsg19
(g1518
g923
tp1569
sg29
g75
sg60
I01
sbtp1570
sg29
g243
sg60
I01
sbg1532
tp1571
sg29
g75
sg60
I01
sbg3
(g20
g5
NtRp1572
(dp1573
g15
(lp1574
sg17
I-242084302
sg18
Nsg19
(g3
(g24
g5
NtRp1575
((I1
S'19L'
I2
I5
t(dp1576
g27
I53
sg15
(lp1577
sg17
I1093208711
sg18
Nsg19
(tsg29
g30
stbg3
(g12
g5
NtRp1578
(dp1579
g15
(lp1580
sg17
I-839099130
sg18
Nsg19
(g3
(g20
g5
NtRp1581
(dp1582
g15
(lp1583
sg17
I-437322002
sg18
Nsg19
(g3
(g12
g5
NtRp1584
(dp1585
g15
(lp1586
sg17
I-287776317
sg18
Nsg19
(g3
(g20
g5
NtRp1587
(dp1588
g15
(lp1589
sg17
I-1923282253
sg18
Nsg19
(g863
g1421
tp1590
sg29
g75
sg60
I01
sbg3
(g20
g5
NtRp1591
(dp1592
g15
(lp1593
sg17
I-1533968871
sg18
Nsg19
(g923
g1421
g1444
tp1594
sg29
g75
sg60
I01
sbg3
(g20
g5
NtRp1595
(dp1596
g15
(lp1597
sg17
I965167388
sg18
Nsg19
(g1453
g897
tp1598
sg29
g75
sg60
I01
sbtp1599
sg29
g243
sg60
I01
sbg1460
tp1600
sg29
g75
sg60
I01
sbg3
(g20
g5
NtRp1601
(dp1602
g15
(lp1603
sg17
I1863156115
sg18
Nsg19
(g129
g3
(g12
g5
NtRp1604
(dp1605
g15
(lp1606
sg17
I-664008903
sg18
Nsg19
(g3
(g20
g5
NtRp1607
(dp1608
g15
(lp1609
sg17
I95785132
sg18
Nsg19
(g897
g1421
tp1610
sg29
g75
sg60
I01
sbg3
(g20
g5
NtRp1611
(dp1612
g15
(lp1613
sg17
I1073118336
sg18
Nsg19
(g129
g923
g1444
tp1614
sg29
g75
sg60
I01
sbtp1615
sg29
g243
sg60
I01
sbg1484
tp1616
sg29
g75
sg60
I01
sbtp1617
sg29
g243
sg60
I01
sbg1490
tp1618
sg29
g75
sg60
I01
sbg3
(g20
g5
NtRp1619
(dp1620
g15
(lp1621
sg17
I64276328
sg18
Nsg19
(g398
g65
g293
g152
tp1622
sg29
g75
sg60
I01
sbg3
(g20
g5
NtRp1623
(dp1624
g15
(lp1625
sg17
I307399116
sg18
Nsg19
(g3
(g24
g5
NtRp1626
((I0
S'19L'
I2
I5
t(dp1627
g27
I53
sg15
(lp1628
sg17
I1268300824
sg18
Nsg19
(tsg29
g30
stbg308
g219
tp1629
sg29
g75
sg60
I01
sbg3
(g20
g5
NtRp1630
(dp1631
g15
(lp1632
sg17
I664484513
sg18
Nsg19
(g424
g143
g50
g293
tp1633
sg29
g75
sg60
I01
sbg3
(g20
g5
NtRp1634
(dp1635
g15
(lp1636
sg17
I2109551418
sg18
Nsg19
(g3
(g24
g5
NtRp1637
((I0
S'19L'
I2
I5
t(dp1638
g27
I53
sg15
(lp1639
sg17
I1268300824
sg18
Nsg19
(tsg29
g30
stbg408
g86
tp1640
sg29
g75
sg60
I01
sbtp1641
sg29
g243
sg60
I01
sbag3
(g12
g5
NtRp1642
(dp1643
g15
(lp1644
sg17
I-1570258410
sg18
Nsg19
(g3
(g20
g5
NtRp1645
(dp1646
g15
(lp1647
sg17
I-1768715803
sg18
Nsg19
(g3
(g24
g5
NtRp1648
((I0
S'19L'
I2
I5
t(dp1649
g27
I53
sg15
(lp1650
sg17
I1268300824
sg18
Nsg19
(tsg29
g30
stbg541
g219
tp1651
sg29
g75
sg60
I01
sbg3
(g20
g5
NtRp1652
(dp1653
g15
(lp1654
sg17
I-1626240036
sg18
Nsg19
(g3
(g24
g5
NtRp1655
((I1
S'19L'
I2
I5
t(dp1656
g27
I53
sg15
(lp1657
sg17
I1093208711
sg18
Nsg19
(tsg29
g30
stbg3
(g12
g5
NtRp1658
(dp1659
g15
(lp1660
sg17
I1096099912
sg18
Nsg19
(g3
(g20
g5
NtRp1661
(dp1662
g15
(lp1663
sg17
I-1951158420
sg18
Nsg19
(g129
g3
(g12
g5
NtRp1664
(dp1665
g15
(lp1666
sg17
I-1207795534
sg18
Nsg19
(g3
(g20
g5
NtRp1667
(dp1668
g15
(lp1669
sg17
I-465069679
sg18
Nsg19
(g1088
g1421
tp1670
sg29
g75
sg60
I01
sbg3
(g20
g5
NtRp1671
(dp1672
g15
(lp1673
sg17
I1940417054
sg18
Nsg19
(g129
g1004
g1444
tp1674
sg29
g75
sg60
I01
sbtp1675
sg29
g243
sg60
I01
sbg1484
tp1676
sg29
g75
sg60
I01
sbg3
(g20
g5
NtRp1677
(dp1678
g15
(lp1679
sg17
I-1318239589
sg18
Nsg19
(g3
(g12
g5
NtRp1680
(dp1681
g15
(lp1682
sg17
I1750665974
sg18
Nsg19
(g3
(g20
g5
NtRp1683
(dp1684
g15
(lp1685
sg17
I-843703025
sg18
Nsg19
(g1453
g1088
tp1686
sg29
g75
sg60
I01
sbg3
(g20
g5
NtRp1687
(dp1688
g15
(lp1689
sg17
I521269567
sg18
Nsg19
(g1004
g1421
g1444
tp1690
sg29
g75
sg60
I01
sbg3
(g20
g5
NtRp1691
(dp1692
g15
(lp1693
sg17
I1134385739
sg18
Nsg19
(g1024
g1421
tp1694
sg29
g75
sg60
I01
sbtp1695
sg29
g243
sg60
I01
sbg1460
tp1696
sg29
g75
sg60
I01
sbtp1697
sg29
g243
sg60
I01
sbg1490
tp1698
sg29
g75
sg60
I01
sbg3
(g20
g5
NtRp1699
(dp1700
g15
(lp1701
sg17
I-1398943507
sg18
Nsg19
(g3
(g24
g5
NtRp1702
((I1
S'19L'
I2
I5
t(dp1703
g27
I53
sg15
(lp1704
sg17
I1093208711
sg18
Nsg19
(tsg29
g30
stbg3
(g12
g5
NtRp1705
(dp1706
g15
(lp1707
sg17
I-732307814
sg18
Nsg19
(g3
(g20
g5
NtRp1708
(dp1709
g15
(lp1710
sg17
I-1916458228
sg18
Nsg19
(g1518
g1004
tp1711
sg29
g75
sg60
I01
sbg3
(g20
g5
NtRp1712
(dp1713
g15
(lp1714
sg17
I1602043615
sg18
Nsg19
(g1088
g1421
g1444
tp1715
sg29
g75
sg60
I01
sbg3
(g20
g5
NtRp1716
(dp1717
g15
(lp1718
sg17
I1975733376
sg18
Nsg19
(g129
g1024
g1444
tp1719
sg29
g75
sg60
I01
sbtp1720
sg29
g243
sg60
I01
sbg1532
tp1721
sg29
g75
sg60
I01
sbg3
(g20
g5
NtRp1722
(dp1723
g15
(lp1724
sg17
I-261490350
sg18
Nsg19
(g3
(g24
g5
NtRp1725
((I0
S'19L'
I2
I5
t(dp1726
g27
I53
sg15
(lp1727
sg17
I1268300824
sg18
Nsg19
(tsg29
g30
stbg467
g86
tp1728
sg29
g75
sg60
I01
sbg3
(g20
g5
NtRp1729
(dp1730
g15
(lp1731
sg17
I117914555
sg18
Nsg19
(g584
g314
g65
g152
tp1732
sg29
g75
sg60
I01
sbg3
(g20
g5
NtRp1733
(dp1734
g15
(lp1735
sg17
I1406817354
sg18
Nsg19
(g591
g143
g314
g50
tp1736
sg29
g75
sg60
I01
sbg3
(g20
g5
NtRp1737
(dp1738
g15
(lp1739
sg17
I1825908468
sg18
Nsg19
(g617
g143
g314
tp1740
sg29
g75
sg60
I01
sbtp1741
sg29
g243
sg60
I01
sbag623
asbsS'RAnkleRoll'
p1742
g3
(g4
g5
NtRp1743
(dp1744
g8
I4
sg9
I1
sg10
(lp1745
g3
(csympy.core.numbers
Zero
p1746
g5
NtRp1747
(dp1748
S'q'
I1
sS'p'
I0
sg15
(lp1749
sg17
I-22759546
sg18
Nsg19
(tsg29
(dp1750
g133
I01
sg38
I00
sS'zero'
p1751
I01
sS'odd'
p1752
I00
sS'even'
p1753
I01
sg35
I01
sS'positive'
p1754
I00
sS'noninteger'
p1755
I00
sS'negative'
p1756
I00
sg42
I01
sg635
I01
sS'finite'
p1757
I00
sg113
I01
sS'nonzero'
p1758
I00
sg33
I01
sS'irrational'
p1759
I00
sS'composite'
p1760
I00
sg43
I01
sg636
I01
sg45
I00
sS'prime'
p1761
I00
sg98
I01
sS'infinitesimal'
p1762
I01
ssbag1747
ag1747
ag623
asbsS'LShoulderRoll'
p1763
g3
(g4
g5
NtRp1764
(dp1765
g8
I4
sg9
I1
sg10
(lp1766
g1236
ag1283
ag1334
ag623
asbsS'LHipPitch'
p1767
g3
(g4
g5
NtRp1768
(dp1769
g8
I4
sg9
I1
sg10
(lp1770
g3
(g12
g5
NtRp1771
(dp1772
g15
(lp1773
sg17
I1921996218
sg18
Nsg19
(g3
(g20
g5
NtRp1774
(dp1775
g15
(lp1776
sg17
I-1863975827
sg18
Nsg19
(g25
g50
g65
tp1777
sg29
g75
sg60
I01
sbg3
(g20
g5
NtRp1778
(dp1779
g15
(lp1780
sg17
I-653208924
sg18
Nsg19
(g1399
g272
g86
tp1781
sg29
g75
sg60
I01
sbg3
(g20
g5
NtRp1782
(dp1783
g15
(lp1784
sg17
I-513226414
sg18
Nsg19
(g1502
g230
g219
g191
tp1785
sg29
g75
sg60
I01
sbg258
g3
(g20
g5
NtRp1786
(dp1787
g15
(lp1788
sg17
I2047094085
sg18
Nsg19
(g279
g143
g152
tp1789
sg29
g75
sg60
I01
sbtp1790
sg29
g243
sg60
I01
sbag3
(g12
g5
NtRp1791
(dp1792
g15
(lp1793
sg17
I604067639
sg18
Nsg19
(g3
(g20
g5
NtRp1794
(dp1795
g15
(lp1796
sg17
I-1787684853
sg18
Nsg19
(g290
g143
g293
tp1797
sg29
g75
sg60
I01
sbg3
(g20
g5
NtRp1798
(dp1799
g15
(lp1800
sg17
I64276328
sg18
Nsg19
(g398
g65
g293
g152
tp1801
sg29
g75
sg60
I01
sbg3
(g20
g5
NtRp1802
(dp1803
g15
(lp1804
sg17
I307399116
sg18
Nsg19
(g1626
g308
g219
tp1805
sg29
g75
sg60
I01
sbg3
(g20
g5
NtRp1806
(dp1807
g15
(lp1808
sg17
I664484513
sg18
Nsg19
(g424
g143
g50
g293
tp1809
sg29
g75
sg60
I01
sbg3
(g20
g5
NtRp1810
(dp1811
g15
(lp1812
sg17
I2109551418
sg18
Nsg19
(g1637
g408
g86
tp1813
sg29
g75
sg60
I01
sbtp1814
sg29
g243
sg60
I01
sbag3
(g12
g5
NtRp1815
(dp1816
g15
(lp1817
sg17
I-294849333
sg18
Nsg19
(g3
(g20
g5
NtRp1818
(dp1819
g15
(lp1820
sg17
I-1768715803
sg18
Nsg19
(g1648
g541
g219
tp1821
sg29
g75
sg60
I01
sbg3
(g20
g5
NtRp1822
(dp1823
g15
(lp1824
sg17
I-261490350
sg18
Nsg19
(g1725
g467
g86
tp1825
sg29
g75
sg60
I01
sbg3
(g20
g5
NtRp1826
(dp1827
g15
(lp1828
sg17
I117914555
sg18
Nsg19
(g584
g314
g65
g152
tp1829
sg29
g75
sg60
I01
sbg3
(g20
g5
NtRp1830
(dp1831
g15
(lp1832
sg17
I1406817354
sg18
Nsg19
(g591
g143
g314
g50
tp1833
sg29
g75
sg60
I01
sbg3
(g20
g5
NtRp1834
(dp1835
g15
(lp1836
sg17
I1825908468
sg18
Nsg19
(g617
g143
g314
tp1837
sg29
g75
sg60
I01
sbtp1838
sg29
g243
sg60
I01
sbag623
asbsS'LElbowYaw'
p1839
g3
(g4
g5
NtRp1840
(dp1841
g8
I4
sg9
I1
sg10
(lp1842
g3
(g12
g5
NtRp1843
(dp1844
g15
(lp1845
sg17
I-1641128956
sg18
Nsg19
(g3
(g20
g5
NtRp1846
(dp1847
g15
(lp1848
sg17
I-1863975827
sg18
Nsg19
(g25
g50
g65
tp1849
sg29
g75
sg60
I01
sbg3
(g20
g5
NtRp1850
(dp1851
g15
(lp1852
sg17
I-1652925552
sg18
Nsg19
(g3
(g24
g5
NtRp1853
((I0
S'69L'
I0
I7
t(dp1854
g27
I53
sg15
(lp1855
sg17
I-1254343936
sg18
Nsg19
(tsg29
g30
stbg787
g3
(g49
g5
NtRp1856
(dp1857
g18
Nsg19
(g3
(g52
g5
NtRp1858
(dp1859
g15
(lp1860
sg56
S'LShoulderPitch'
p1861
sg18
Nsg19
(tsg29
g723
sg60
I01
sg17
I-405093764
sbtp1862
sg15
(lp1863
sg29
g726
sg17
I-1763470427
sbtp1864
sg29
g75
sg60
I01
sbg3
(g20
g5
NtRp1865
(dp1866
g15
(lp1867
sg17
I-681377705
sg18
Nsg19
(g1246
g83
g122
g191
tp1868
sg29
g75
sg60
I01
sbg3
(g20
g5
NtRp1869
(dp1870
g15
(lp1871
sg17
I-606518381
sg18
Nsg19
(g1253
g122
g219
g191
tp1872
sg29
g75
sg60
I01
sbg3
(g20
g5
NtRp1873
(dp1874
g15
(lp1875
sg17
I-578902411
sg18
Nsg19
(g1260
g122
g253
g219
tp1876
sg29
g75
sg60
I01
sbg3
(g20
g5
NtRp1877
(dp1878
g15
(lp1879
sg17
I-285345590
sg18
Nsg19
(g3
(g24
g5
NtRp1880
((I1
S'69L'
I0
I7
t(dp1881
g27
I53
sg15
(lp1882
sg17
I626558143
sg18
Nsg19
(tsg29
g30
stbg734
g3
(g64
g5
NtRp1883
(dp1884
g18
Nsg19
(g1858
tp1885
sg15
(lp1886
sg29
g758
sg17
I-1302084094
sbtp1887
sg29
g75
sg60
I01
sbg3
(g20
g5
NtRp1888
(dp1889
g15
(lp1890
sg17
I-177509473
sg18
Nsg19
(g1267
g206
g219
g86
tp1891
sg29
g75
sg60
I01
sbg3
(g20
g5
NtRp1892
(dp1893
g15
(lp1894
sg17
I53690621
sg18
Nsg19
(g3
(g24
g5
NtRp1895
((I0
S'fL'
I0
I4
t(dp1896
g27
I53
sg15
(lp1897
sg17
I-854364431
sg18
Nsg19
(tsg29
g30
stbg3
(g12
g5
NtRp1898
(dp1899
g15
(lp1900
sg17
I-240741010
sg18
Nsg19
(g3
(g20
g5
NtRp1901
(dp1902
g15
(lp1903
sg17
I-1752086133
sg18
Nsg19
(g787
g1883
tp1904
sg29
g75
sg60
I01
sbg3
(g20
g5
NtRp1905
(dp1906
g15
(lp1907
sg17
I1623758880
sg18
Nsg19
(g734
g1856
tp1908
sg29
g75
sg60
I01
sbtp1909
sg29
g243
sg60
I01
sbg3
(g64
g5
NtRp1910
(dp1911
g18
Nsg19
(g3
(g52
g5
NtRp1912
(dp1913
g15
(lp1914
sg56
S'LShoulderRoll'
p1915
sg18
Nsg19
(tsg29
g723
sg60
I01
sg17
I465533692
sbtp1916
sg15
(lp1917
sg29
g758
sg17
I-962953342
sbtp1918
sg29
g75
sg60
I01
sbg3
(g20
g5
NtRp1919
(dp1920
g15
(lp1921
sg17
I360879186
sg18
Nsg19
(g3
(g24
g5
NtRp1922
((I0
S'fL'
I0
I4
t(dp1923
g27
I53
sg15
(lp1924
sg17
I-854364431
sg18
Nsg19
(tsg29
g30
stbg705
g3
(g49
g5
NtRp1925
(dp1926
g18
Nsg19
(g1912
tp1927
sg15
(lp1928
sg29
g726
sg17
I1423301157
sbtp1929
sg29
g75
sg60
I01
sbg258
g3
(g20
g5
NtRp1930
(dp1931
g15
(lp1932
sg17
I1844369431
sg18
Nsg19
(g1274
g206
g86
tp1933
sg29
g75
sg60
I01
sbg3
(g20
g5
NtRp1934
(dp1935
g15
(lp1936
sg17
I2047094085
sg18
Nsg19
(g279
g143
g152
tp1937
sg29
g75
sg60
I01
sbtp1938
sg29
g243
sg60
I01
sbag3
(g12
g5
NtRp1939
(dp1940
g15
(lp1941
sg17
I-1896160210
sg18
Nsg19
(g3
(g20
g5
NtRp1942
(dp1943
g15
(lp1944
sg17
I-2041448457
sg18
Nsg19
(g3
(g24
g5
NtRp1945
((I1
S'69L'
I0
I7
t(dp1946
g27
I53
sg15
(lp1947
sg17
I626558143
sg18
Nsg19
(tsg29
g30
stbg863
g1883
tp1948
sg29
g75
sg60
I01
sbg3
(g20
g5
NtRp1949
(dp1950
g15
(lp1951
sg17
I-1787684853
sg18
Nsg19
(g290
g143
g293
tp1952
sg29
g75
sg60
I01
sbg3
(g20
g5
NtRp1953
(dp1954
g15
(lp1955
sg17
I-1418269293
sg18
Nsg19
(g3
(g24
g5
NtRp1956
((I0
S'fL'
I0
I4
t(dp1957
g27
I53
sg15
(lp1958
sg17
I-854364431
sg18
Nsg19
(tsg29
g30
stbg3
(g12
g5
NtRp1959
(dp1960
g15
(lp1961
sg17
I261261088
sg18
Nsg19
(g3
(g20
g5
NtRp1962
(dp1963
g15
(lp1964
sg17
I106043717
sg18
Nsg19
(g863
g1856
tp1965
sg29
g75
sg60
I01
sbg3
(g20
g5
NtRp1966
(dp1967
g15
(lp1968
sg17
I1703915368
sg18
Nsg19
(g923
g1883
tp1969
sg29
g75
sg60
I01
sbtp1970
sg29
g243
sg60
I01
sbg1910
tp1971
sg29
g75
sg60
I01
sbg3
(g20
g5
NtRp1972
(dp1973
g15
(lp1974
sg17
I-366767767
sg18
Nsg19
(g3
(g24
g5
NtRp1975
((I0
S'fL'
I0
I4
t(dp1976
g27
I53
sg15
(lp1977
sg17
I-854364431
sg18
Nsg19
(tsg29
g30
stbg897
g1925
tp1978
sg29
g75
sg60
I01
sbg3
(g20
g5
NtRp1979
(dp1980
g15
(lp1981
sg17
I64276328
sg18
Nsg19
(g398
g65
g293
g152
tp1982
sg29
g75
sg60
I01
sbg3
(g20
g5
NtRp1983
(dp1984
g15
(lp1985
sg17
I337911883
sg18
Nsg19
(g1297
g444
g219
tp1986
sg29
g75
sg60
I01
sbg3
(g20
g5
NtRp1987
(dp1988
g15
(lp1989
sg17
I456321241
sg18
Nsg19
(g1304
g434
g219
g86
tp1990
sg29
g75
sg60
I01
sbg3
(g20
g5
NtRp1991
(dp1992
g15
(lp1993
sg17
I664484513
sg18
Nsg19
(g424
g143
g50
g293
tp1994
sg29
g75
sg60
I01
sbg3
(g20
g5
NtRp1995
(dp1996
g15
(lp1997
sg17
I945589083
sg18
Nsg19
(g3
(g24
g5
NtRp1998
((I0
S'69L'
I0
I7
t(dp1999
g27
I53
sg15
(lp2000
sg17
I-1254343936
sg18
Nsg19
(tsg29
g30
stbg923
g1856
tp2001
sg29
g75
sg60
I01
sbg3
(g20
g5
NtRp2002
(dp2003
g15
(lp2004
sg17
I1194388763
sg18
Nsg19
(g1315
g83
g367
tp2005
sg29
g75
sg60
I01
sbg3
(g20
g5
NtRp2006
(dp2007
g15
(lp2008
sg17
I1610670647
sg18
Nsg19
(g1322
g367
g219
tp2009
sg29
g75
sg60
I01
sbg3
(g20
g5
NtRp2010
(dp2011
g15
(lp2012
sg17
I2141785617
sg18
Nsg19
(g1329
g434
g86
tp2013
sg29
g75
sg60
I01
sbtp2014
sg29
g243
sg60
I01
sbag3
(g12
g5
NtRp2015
(dp2016
g15
(lp2017
sg17
I-1569227503
sg18
Nsg19
(g3
(g20
g5
NtRp2018
(dp2019
g15
(lp2020
sg17
I-1093672315
sg18
Nsg19
(g3
(g24
g5
NtRp2021
((I0
S'69L'
I0
I7
t(dp2022
g27
I53
sg15
(lp2023
sg17
I-1254343936
sg18
Nsg19
(tsg29
g30
stbg1004
g1856
tp2024
sg29
g75
sg60
I01
sbg3
(g20
g5
NtRp2025
(dp2026
g15
(lp2027
sg17
I-774959090
sg18
Nsg19
(g1340
g83
g510
tp2028
sg29
g75
sg60
I01
sbg3
(g20
g5
NtRp2029
(dp2030
g15
(lp2031
sg17
I-523549575
sg18
Nsg19
(g1347
g577
g86
tp2032
sg29
g75
sg60
I01
sbg3
(g20
g5
NtRp2033
(dp2034
g15
(lp2035
sg17
I117914555
sg18
Nsg19
(g584
g314
g65
g152
tp2036
sg29
g75
sg60
I01
sbg3
(g20
g5
NtRp2037
(dp2038
g15
(lp2039
sg17
I368653470
sg18
Nsg19
(g1358
g510
g219
tp2040
sg29
g75
sg60
I01
sbg3
(g20
g5
NtRp2041
(dp2042
g15
(lp2043
sg17
I733921904
sg18
Nsg19
(g3
(g24
g5
NtRp2044
((I0
S'fL'
I0
I4
t(dp2045
g27
I53
sg15
(lp2046
sg17
I-854364431
sg18
Nsg19
(tsg29
g30
stbg1088
g1925
tp2047
sg29
g75
sg60
I01
sbg3
(g20
g5
NtRp2048
(dp2049
g15
(lp2050
sg17
I1406817354
sg18
Nsg19
(g591
g143
g314
g50
tp2051
sg29
g75
sg60
I01
sbg3
(g20
g5
NtRp2052
(dp2053
g15
(lp2054
sg17
I1525926284
sg18
Nsg19
(g1369
g601
g219
tp2055
sg29
g75
sg60
I01
sbg3
(g20
g5
NtRp2056
(dp2057
g15
(lp2058
sg17
I1648429169
sg18
Nsg19
(g1376
g577
g219
g86
tp2059
sg29
g75
sg60
I01
sbg3
(g20
g5
NtRp2060
(dp2061
g15
(lp2062
sg17
I1825908468
sg18
Nsg19
(g617
g143
g314
tp2063
sg29
g75
sg60
I01
sbg3
(g20
g5
NtRp2064
(dp2065
g15
(lp2066
sg17
I2037949803
sg18
Nsg19
(g3
(g24
g5
NtRp2067
((I0
S'fL'
I0
I4
t(dp2068
g27
I53
sg15
(lp2069
sg17
I-854364431
sg18
Nsg19
(tsg29
g30
stbg3
(g12
g5
NtRp2070
(dp2071
g15
(lp2072
sg17
I-440359128
sg18
Nsg19
(g3
(g20
g5
NtRp2073
(dp2074
g15
(lp2075
sg17
I-512190842
sg18
Nsg19
(g1004
g1883
tp2076
sg29
g75
sg60
I01
sbg3
(g20
g5
NtRp2077
(dp2078
g15
(lp2079
sg17
I2090382109
sg18
Nsg19
(g1024
g1856
tp2080
sg29
g75
sg60
I01
sbtp2081
sg29
g243
sg60
I01
sbg1910
tp2082
sg29
g75
sg60
I01
sbg3
(g20
g5
NtRp2083
(dp2084
g15
(lp2085
sg17
I2088227007
sg18
Nsg19
(g3
(g24
g5
NtRp2086
((I1
S'69L'
I0
I7
t(dp2087
g27
I53
sg15
(lp2088
sg17
I626558143
sg18
Nsg19
(tsg29
g30
stbg1024
g1883
tp2089
sg29
g75
sg60
I01
sbtp2090
sg29
g243
sg60
I01
sbag623
asbsS'LAnklePitch'
p2091
g3
(g4
g5
NtRp2092
(dp2093
g8
I4
sg9
I1
sg10
(lp2094
g3
(g12
g5
NtRp2095
(dp2096
g15
(lp2097
sg17
I-2117520295
sg18
Nsg19
(g3
(g20
g5
NtRp2098
(dp2099
g15
(lp2100
sg17
I-1863975827
sg18
Nsg19
(g25
g50
g65
tp2101
sg29
g75
sg60
I01
sbg3
(g20
g5
NtRp2102
(dp2103
g15
(lp2104
sg17
I-653208924
sg18
Nsg19
(g1399
g272
g86
tp2105
sg29
g75
sg60
I01
sbg3
(g20
g5
NtRp2106
(dp2107
g15
(lp2108
sg17
I-521980125
sg18
Nsg19
(g1406
g1409
g1490
tp2109
sg29
g75
sg60
I01
sbg3
(g20
g5
NtRp2110
(dp2111
g15
(lp2112
sg17
I-513226414
sg18
Nsg19
(g1502
g230
g219
g191
tp2113
sg29
g75
sg60
I01
sbg3
(g20
g5
NtRp2114
(dp2115
g15
(lp2116
sg17
I331812243
sg18
Nsg19
(g3
(g24
g5
NtRp2117
((I1
S'cdccccccccccdL'
I-45
I52
t(dp2118
g27
I53
sg15
(lp2119
sg17
I-1251486285
sg18
Nsg19
(tsg29
g30
stbg3
(g12
g5
NtRp2120
(dp2121
g15
(lp2122
sg17
I1765561965
sg18
Nsg19
(g3
(g20
g5
NtRp2123
(dp2124
g15
(lp2125
sg17
I-1504478581
sg18
Nsg19
(g1512
g1490
tp2126
sg29
g75
sg60
I01
sbg3
(g20
g5
NtRp2127
(dp2128
g15
(lp2129
sg17
I-1466199191
sg18
Nsg19
(g129
g1409
g1532
tp2130
sg29
g75
sg60
I01
sbtp2131
sg29
g243
sg60
I01
sbg3
(g64
g5
NtRp2132
(dp2133
g18
Nsg19
(g3
(g52
g5
NtRp2134
(dp2135
g15
(lp2136
sg56
S'LKneePitch'
p2137
sg18
Nsg19
(tsg29
g1434
sg60
I01
sg17
I375307665
sbtp2138
sg15
(lp2139
sg29
g1448
sg17
I-1708031391
sbtp2140
sg29
g75
sg60
I01
sbg3
(g20
g5
NtRp2141
(dp2142
g15
(lp2143
sg17
I1033622024
sg18
Nsg19
(g3
(g24
g5
NtRp2144
((I1
S'cdccccccccccdL'
I-45
I52
t(dp2145
g27
I53
sg15
(lp2146
sg17
I-1251486285
sg18
Nsg19
(tsg29
g30
stbg3
(g12
g5
NtRp2147
(dp2148
g15
(lp2149
sg17
I-1461897351
sg18
Nsg19
(g3
(g20
g5
NtRp2150
(dp2151
g15
(lp2152
sg17
I-1699935722
sg18
Nsg19
(g1512
g1532
tp2153
sg29
g75
sg60
I01
sbg3
(g20
g5
NtRp2154
(dp2155
g15
(lp2156
sg17
I703008694
sg18
Nsg19
(g1409
g1490
tp2157
sg29
g75
sg60
I01
sbtp2158
sg29
g243
sg60
I01
sbg3
(g49
g5
NtRp2159
(dp2160
g18
Nsg19
(g2134
tp2161
sg15
(lp2162
sg29
g1439
sg17
I767669438
sbtp2163
sg29
g75
sg60
I01
sbg258
g3
(g20
g5
NtRp2164
(dp2165
g15
(lp2166
sg17
I1570107897
sg18
Nsg19
(g1509
g1512
g1532
tp2167
sg29
g75
sg60
I01
sbg3
(g20
g5
NtRp2168
(dp2169
g15
(lp2170
sg17
I2047094085
sg18
Nsg19
(g279
g143
g152
tp2171
sg29
g75
sg60
I01
sbtp2172
sg29
g243
sg60
I01
sbag3
(g12
g5
NtRp2173
(dp2174
g15
(lp2175
sg17
I677185310
sg18
Nsg19
(g3
(g20
g5
NtRp2176
(dp2177
g15
(lp2178
sg17
I-1787684853
sg18
Nsg19
(g290
g143
g293
tp2179
sg29
g75
sg60
I01
sbg3
(g20
g5
NtRp2180
(dp2181
g15
(lp2182
sg17
I-1272890838
sg18
Nsg19
(g1552
g1555
g1532
tp2183
sg29
g75
sg60
I01
sbg3
(g20
g5
NtRp2184
(dp2185
g15
(lp2186
sg17
I-242084302
sg18
Nsg19
(g1575
g1578
g1490
tp2187
sg29
g75
sg60
I01
sbg3
(g20
g5
NtRp2188
(dp2189
g15
(lp2190
sg17
I64276328
sg18
Nsg19
(g398
g65
g293
g152
tp2191
sg29
g75
sg60
I01
sbg3
(g20
g5
NtRp2192
(dp2193
g15
(lp2194
sg17
I307399116
sg18
Nsg19
(g1626
g308
g219
tp2195
sg29
g75
sg60
I01
sbg3
(g20
g5
NtRp2196
(dp2197
g15
(lp2198
sg17
I408288916
sg18
Nsg19
(g3
(g24
g5
NtRp2199
((I1
S'cdccccccccccdL'
I-45
I52
t(dp2200
g27
I53
sg15
(lp2201
sg17
I-1251486285
sg18
Nsg19
(tsg29
g30
stbg3
(g12
g5
NtRp2202
(dp2203
g15
(lp2204
sg17
I-331407595
sg18
Nsg19
(g3
(g20
g5
NtRp2205
(dp2206
g15
(lp2207
sg17
I-2070645445
sg18
Nsg19
(g1578
g1490
tp2208
sg29
g75
sg60
I01
sbg3
(g20
g5
NtRp2209
(dp2210
g15
(lp2211
sg17
I701210865
sg18
Nsg19
(g1555
g1532
tp2212
sg29
g75
sg60
I01
sbtp2213
sg29
g243
sg60
I01
sbg2159
tp2214
sg29
g75
sg60
I01
sbg3
(g20
g5
NtRp2215
(dp2216
g15
(lp2217
sg17
I585096483
sg18
Nsg19
(g3
(g24
g5
NtRp2218
((I1
S'cdccccccccccdL'
I-45
I52
t(dp2219
g27
I53
sg15
(lp2220
sg17
I-1251486285
sg18
Nsg19
(tsg29
g30
stbg3
(g12
g5
NtRp2221
(dp2222
g15
(lp2223
sg17
I-1915836547
sg18
Nsg19
(g3
(g20
g5
NtRp2224
(dp2225
g15
(lp2226
sg17
I541006536
sg18
Nsg19
(g129
g1578
g1532
tp2227
sg29
g75
sg60
I01
sbg3
(g20
g5
NtRp2228
(dp2229
g15
(lp2230
sg17
I1003648088
sg18
Nsg19
(g1555
g1490
tp2231
sg29
g75
sg60
I01
sbtp2232
sg29
g243
sg60
I01
sbg2132
tp2233
sg29
g75
sg60
I01
sbg3
(g20
g5
NtRp2234
(dp2235
g15
(lp2236
sg17
I664484513
sg18
Nsg19
(g424
g143
g50
g293
tp2237
sg29
g75
sg60
I01
sbg3
(g20
g5
NtRp2238
(dp2239
g15
(lp2240
sg17
I2109551418
sg18
Nsg19
(g1637
g408
g86
tp2241
sg29
g75
sg60
I01
sbtp2242
sg29
g243
sg60
I01
sbag3
(g12
g5
NtRp2243
(dp2244
g15
(lp2245
sg17
I851125819
sg18
Nsg19
(g3
(g20
g5
NtRp2246
(dp2247
g15
(lp2248
sg17
I-1768715803
sg18
Nsg19
(g1648
g541
g219
tp2249
sg29
g75
sg60
I01
sbg3
(g20
g5
NtRp2250
(dp2251
g15
(lp2252
sg17
I-1626240036
sg18
Nsg19
(g1655
g1658
g1490
tp2253
sg29
g75
sg60
I01
sbg3
(g20
g5
NtRp2254
(dp2255
g15
(lp2256
sg17
I-1398943507
sg18
Nsg19
(g1702
g1705
g1532
tp2257
sg29
g75
sg60
I01
sbg3
(g20
g5
NtRp2258
(dp2259
g15
(lp2260
sg17
I-508122602
sg18
Nsg19
(g3
(g24
g5
NtRp2261
((I1
S'cdccccccccccdL'
I-45
I52
t(dp2262
g27
I53
sg15
(lp2263
sg17
I-1251486285
sg18
Nsg19
(tsg29
g30
stbg3
(g12
g5
NtRp2264
(dp2265
g15
(lp2266
sg17
I2094615612
sg18
Nsg19
(g3
(g20
g5
NtRp2267
(dp2268
g15
(lp2269
sg17
I-1242510217
sg18
Nsg19
(g1705
g1490
tp2270
sg29
g75
sg60
I01
sbg3
(g20
g5
NtRp2271
(dp2272
g15
(lp2273
sg17
I-1158185378
sg18
Nsg19
(g129
g1658
g1532
tp2274
sg29
g75
sg60
I01
sbtp2275
sg29
g243
sg60
I01
sbg2132
tp2276
sg29
g75
sg60
I01
sbg3
(g20
g5
NtRp2277
(dp2278
g15
(lp2279
sg17
I-261490350
sg18
Nsg19
(g1725
g467
g86
tp2280
sg29
g75
sg60
I01
sbg3
(g20
g5
NtRp2281
(dp2282
g15
(lp2283
sg17
I-130048749
sg18
Nsg19
(g3
(g24
g5
NtRp2284
((I1
S'cdccccccccccdL'
I-45
I52
t(dp2285
g27
I53
sg15
(lp2286
sg17
I-1251486285
sg18
Nsg19
(tsg29
g30
stbg3
(g12
g5
NtRp2287
(dp2288
g15
(lp2289
sg17
I51409694
sg18
Nsg19
(g3
(g20
g5
NtRp2290
(dp2291
g15
(lp2292
sg17
I-494737959
sg18
Nsg19
(g1658
g1490
tp2293
sg29
g75
sg60
I01
sbg3
(g20
g5
NtRp2294
(dp2295
g15
(lp2296
sg17
I2140593154
sg18
Nsg19
(g1705
g1532
tp2297
sg29
g75
sg60
I01
sbtp2298
sg29
g243
sg60
I01
sbg2159
tp2299
sg29
g75
sg60
I01
sbg3
(g20
g5
NtRp2300
(dp2301
g15
(lp2302
sg17
I117914555
sg18
Nsg19
(g584
g314
g65
g152
tp2303
sg29
g75
sg60
I01
sbg3
(g20
g5
NtRp2304
(dp2305
g15
(lp2306
sg17
I1406817354
sg18
Nsg19
(g591
g143
g314
g50
tp2307
sg29
g75
sg60
I01
sbg3
(g20
g5
NtRp2308
(dp2309
g15
(lp2310
sg17
I1825908468
sg18
Nsg19
(g617
g143
g314
tp2311
sg29
g75
sg60
I01
sbtp2312
sg29
g243
sg60
I01
sbag623
asbsS'RHipYawPitch'
p2313
g3
(g4
g5
NtRp2314
(dp2315
g8
I4
sg9
I1
sg10
(lp2316
g644
ag656
ag672
ag623
asbsS'HeadPitch'
p2317
g3
(g4
g5
NtRp2318
(dp2319
g8
I4
sg9
I1
sg10
(lp2320
g13
ag284
ag458
ag623
asbsS'Torso'
p2321
g3
(g4
g5
NtRp2322
(dp2323
g8
I4
sg9
I1
sg10
(lp2324
g3
(g12
g5
NtRp2325
(dp2326
g15
(lp2327
sg17
I742755696
sg18
Nsg19
(g3
(g20
g5
NtRp2328
(dp2329
g15
(lp2330
sg17
I-1863975827
sg18
Nsg19
(g25
g50
g65
tp2331
sg29
g75
sg60
I01
sbg3
(g20
g5
NtRp2332
(dp2333
g15
(lp2334
sg17
I-1485460254
sg18
Nsg19
(g3
(g24
g5
NtRp2335
((I1
S'55L'
I0
I7
t(dp2336
g27
I53
sg15
(lp2337
sg17
I-1717932101
sg18
Nsg19
(tsg29
g30
stbg272
g219
g86
tp2338
sg29
g75
sg60
I01
sbg3
(g20
g5
NtRp2339
(dp2340
g15
(lp2341
sg17
I-856329701
sg18
Nsg19
(g227
g230
g219
g191
tp2342
sg29
g75
sg60
I01
sbg3
(g20
g5
NtRp2343
(dp2344
g15
(lp2345
sg17
I149274832
sg18
Nsg19
(g3
(g24
g5
NtRp2346
((I0
S'55L'
I0
I7
t(dp2347
g27
I53
sg15
(lp2348
sg17
I2110929564
sg18
Nsg19
(tsg29
g30
stbg230
g253
g219
tp2349
sg29
g75
sg60
I01
sbg258
g3
(g20
g5
NtRp2350
(dp2351
g15
(lp2352
sg17
I1380793015
sg18
Nsg19
(g269
g272
g86
tp2353
sg29
g75
sg60
I01
sbg3
(g20
g5
NtRp2354
(dp2355
g15
(lp2356
sg17
I1828709634
sg18
Nsg19
(g3
(g24
g5
NtRp2357
((I1
S'55L'
I0
I7
t(dp2358
g27
I53
sg15
(lp2359
sg17
I-1717932101
sg18
Nsg19
(tsg29
g30
stbg83
g230
g191
tp2360
sg29
g75
sg60
I01
sbg3
(g20
g5
NtRp2361
(dp2362
g15
(lp2363
sg17
I2047094085
sg18
Nsg19
(g279
g143
g152
tp2364
sg29
g75
sg60
I01
sbtp2365
sg29
g243
sg60
I01
sbag3
(g12
g5
NtRp2366
(dp2367
g15
(lp2368
sg17
I1842472265
sg18
Nsg19
(g3
(g20
g5
NtRp2369
(dp2370
g15
(lp2371
sg17
I-1787684853
sg18
Nsg19
(g290
g143
g293
tp2372
sg29
g75
sg60
I01
sbg3
(g20
g5
NtRp2373
(dp2374
g15
(lp2375
sg17
I-1768336297
sg18
Nsg19
(g305
g308
g219
tp2376
sg29
g75
sg60
I01
sbg3
(g20
g5
NtRp2377
(dp2378
g15
(lp2379
sg17
I-1569227092
sg18
Nsg19
(g3
(g24
g5
NtRp2380
((I1
S'55L'
I0
I7
t(dp2381
g27
I53
sg15
(lp2382
sg17
I-1717932101
sg18
Nsg19
(tsg29
g30
stbg408
g219
g86
tp2383
sg29
g75
sg60
I01
sbg3
(g20
g5
NtRp2384
(dp2385
g15
(lp2386
sg17
I64276328
sg18
Nsg19
(g398
g65
g293
g152
tp2387
sg29
g75
sg60
I01
sbg3
(g20
g5
NtRp2388
(dp2389
g15
(lp2390
sg17
I85416945
sg18
Nsg19
(g405
g408
g86
tp2391
sg29
g75
sg60
I01
sbg3
(g20
g5
NtRp2392
(dp2393
g15
(lp2394
sg17
I664484513
sg18
Nsg19
(g424
g143
g50
g293
tp2395
sg29
g75
sg60
I01
sbg3
(g20
g5
NtRp2396
(dp2397
g15
(lp2398
sg17
I695854124
sg18
Nsg19
(g3
(g24
g5
NtRp2399
((I0
S'55L'
I0
I7
t(dp2400
g27
I53
sg15
(lp2401
sg17
I2110929564
sg18
Nsg19
(tsg29
g30
stbg83
g308
tp2402
sg29
g75
sg60
I01
sbg3
(g20
g5
NtRp2403
(dp2404
g15
(lp2405
sg17
I1245235284
sg18
Nsg19
(g3
(g24
g5
NtRp2406
((I0
S'55L'
I0
I7
t(dp2407
g27
I53
sg15
(lp2408
sg17
I2110929564
sg18
Nsg19
(tsg29
g30
stbg3
(g12
g5
NtRp2409
(dp2410
g15
(lp2411
sg17
I-1491420891
sg18
Nsg19
g455
sg29
g243
sg60
I01
sbg219
tp2412
sg29
g75
sg60
I01
sbtp2413
sg29
g243
sg60
I01
sbag3
(g12
g5
NtRp2414
(dp2415
g15
(lp2416
sg17
I-799042421
sg18
Nsg19
(g3
(g20
g5
NtRp2417
(dp2418
g15
(lp2419
sg17
I-1569950444
sg18
Nsg19
(g3
(g24
g5
NtRp2420
((I1
S'55L'
I0
I7
t(dp2421
g27
I53
sg15
(lp2422
sg17
I-1717932101
sg18
Nsg19
(tsg29
g30
stbg467
g219
g86
tp2423
sg29
g75
sg60
I01
sbg3
(g20
g5
NtRp2424
(dp2425
g15
(lp2426
sg17
I-552864295
sg18
Nsg19
(g464
g467
g86
tp2427
sg29
g75
sg60
I01
sbg3
(g20
g5
NtRp2428
(dp2429
g15
(lp2430
sg17
I-329719234
sg18
Nsg19
(g538
g541
g219
tp2431
sg29
g75
sg60
I01
sbg3
(g20
g5
NtRp2432
(dp2433
g15
(lp2434
sg17
I117914555
sg18
Nsg19
(g584
g314
g65
g152
tp2435
sg29
g75
sg60
I01
sbg3
(g20
g5
NtRp2436
(dp2437
g15
(lp2438
sg17
I527170003
sg18
Nsg19
(g3
(g24
g5
NtRp2439
((I0
S'55L'
I0
I7
t(dp2440
g27
I53
sg15
(lp2441
sg17
I2110929564
sg18
Nsg19
(tsg29
g30
stbg3
(g12
g5
NtRp2442
(dp2443
g15
(lp2444
sg17
I-1894291642
sg18
Nsg19
(g3
(g20
g5
NtRp2445
(dp2446
g15
(lp2447
sg17
I-2135399298
sg18
Nsg19
g607
sg29
g75
sg60
I01
sbg608
tp2448
sg29
g243
sg60
I01
sbg219
tp2449
sg29
g75
sg60
I01
sbg3
(g20
g5
NtRp2450
(dp2451
g15
(lp2452
sg17
I875456825
sg18
Nsg19
(g3
(g24
g5
NtRp2453
((I0
S'55L'
I0
I7
t(dp2454
g27
I53
sg15
(lp2455
sg17
I2110929564
sg18
Nsg19
(tsg29
g30
stbg83
g541
tp2456
sg29
g75
sg60
I01
sbg3
(g20
g5
NtRp2457
(dp2458
g15
(lp2459
sg17
I1406817354
sg18
Nsg19
(g591
g143
g314
g50
tp2460
sg29
g75
sg60
I01
sbg3
(g20
g5
NtRp2461
(dp2462
g15
(lp2463
sg17
I1825908468
sg18
Nsg19
(g617
g143
g314
tp2464
sg29
g75
sg60
I01
sbtp2465
sg29
g243
sg60
I01
sbag623
asbsS'LElbowRoll'
p2466
g3
(g4
g5
NtRp2467
(dp2468
g8
I4
sg9
I1
sg10
(lp2469
g1843
ag1939
ag2015
ag623
asbsS'RShoulderRoll'
p2470
g3
(g4
g5
NtRp2471
(dp2472
g8
I4
sg9
I1
sg10
(lp2473
g1128
ag1160
ag1196
ag623
asbsS'LAnkleRoll'
p2474
g3
(g4
g5
NtRp2475
(dp2476
g8
I4
sg9
I1
sg10
(lp2477
g2095
ag2173
ag2243
ag623
asbsS'LHipYawPitch'
p2478
g3
(g4
g5
NtRp2479
(dp2480
g8
I4
sg9
I1
sg10
(lp2481
g1771
ag1791
ag1815
ag623
asbsS'RAnklePitch'
p2482
g3
(g4
g5
NtRp2483
(dp2484
g8
I4
sg9
I1
sg10
(lp2485
g1747
ag1747
ag1747
ag623
asbsS'LHipRoll'
p2486
g3
(g4
g5
NtRp2487
(dp2488
g8
I4
sg9
I1
sg10
(lp2489
g1771
ag1791
ag1815
ag623
asbsS'RHipRoll'
p2490
g3
(g4
g5
NtRp2491
(dp2492
g8
I4
sg9
I1
sg10
(lp2493
g644
ag656
ag672
ag623
asbsS'RElbowRoll'
p2494
g3
(g4
g5
NtRp2495
(dp2496
g8
I4
sg9
I1
sg10
(lp2497
g692
ag854
ag989
ag623
asbsS'RKneePitch'
p2498
g3
(g4
g5
NtRp2499
(dp2500
g8
I4
sg9
I1
sg10
(lp2501
g258
ag3
(g20
g5
NtRp2502
(dp2503
g15
(lp2504
sg17
I-1787684853
sg18
Nsg19
(g3
(g24
g5
NtRp2505
((I0
S'cdccccccccccdL'
I-45
I52
t(dp2506
g27
I53
sg15
(lp2507
sg17
I-1358357444
sg18
Nsg19
(tsg29
g30
stbg143
g293
tp2508
sg29
g75
sg60
I01
sbag3
(g20
g5
NtRp2509
(dp2510
g15
(lp2511
sg17
I1825908468
sg18
Nsg19
(g3
(g24
g5
NtRp2512
((I0
S'cdccccccccccdL'
I-45
I52
t(dp2513
g27
I53
sg15
(lp2514
sg17
I-1358357444
sg18
Nsg19
(tsg29
g30
stbg143
g314
tp2515
sg29
g75
sg60
I01
sbag623
asbs.